	.section	__TEXT,__text,regular,pure_instructions
	.section	__TEXT,__literal8,8byte_literals
	.align	3
LCPI0_0:
	.quad	4612811918334230528     ## double 2.5
	.section	__TEXT,__text,regular,pure_instructions
	.globl	_main
	.align	4, 0x90
_main:                                  ## @main
Lfunc_begin0:
	.loc	1 15 0                  ## callingConventions.c:15:0
	.cfi_startproc
## BB#0:
	pushq	%rbp
Ltmp3:
	.cfi_def_cfa_offset 16
Ltmp4:
	.cfi_offset %rbp, -16
	movq	%rsp, %rbp
Ltmp5:
	.cfi_def_cfa_register %rbp
	pushq	%r15
	pushq	%r14
	pushq	%rbx
	subq	$120, %rsp
Ltmp6:
	.cfi_offset %rbx, -40
Ltmp7:
	.cfi_offset %r14, -32
Ltmp8:
	.cfi_offset %r15, -24
	movl	%edi, -28(%rbp)
	movq	%rsi, -40(%rbp)
	.loc	1 16 0 prologue_end     ## callingConventions.c:16:0
Ltmp9:
	movl	$1, -44(%rbp)
	.loc	1 17 0                  ## callingConventions.c:17:0
	movl	-44(%rbp), %edi
	callq	_func1
	movsd	LCPI0_0(%rip), %xmm0
	movl	%eax, -48(%rbp)
	.loc	1 18 0                  ## callingConventions.c:18:0
	movb	$97, -49(%rbp)
	.loc	1 19 0                  ## callingConventions.c:19:0
	movsd	%xmm0, -64(%rbp)
	.loc	1 20 0                  ## callingConventions.c:20:0
	movl	-48(%rbp), %edi
	movb	-49(%rbp), %cl
	movsd	-64(%rbp), %xmm0
	movsbl	%cl, %esi
	callq	_funcDouble
	movsd	%xmm0, -72(%rbp)
	.loc	1 21 0                  ## callingConventions.c:21:0
	movl	-44(%rbp), %edi
	movl	-48(%rbp), %esi
	movsbl	-49(%rbp), %edx
	callq	_func2
	leaq	L_.str(%rip), %r8
	movl	%eax, -44(%rbp)
	.loc	1 22 0                  ## callingConventions.c:22:0
	movq	%r8, -80(%rbp)
	.loc	1 23 0                  ## callingConventions.c:23:0
	movl	$4, -84(%rbp)
	.loc	1 24 0                  ## callingConventions.c:24:0
	movl	$10, -88(%rbp)
	.loc	1 25 0                  ## callingConventions.c:25:0
	movq	-80(%rbp), %rdi
	movl	-44(%rbp), %esi
	movl	-48(%rbp), %edx
	movl	-84(%rbp), %ecx
	movl	-88(%rbp), %r8d
	callq	_func3
	movl	%eax, -44(%rbp)
	.loc	1 26 0                  ## callingConventions.c:26:0
	movl	$-2, -92(%rbp)
	.loc	1 27 0                  ## callingConventions.c:27:0
	movl	$7, -96(%rbp)
	.loc	1 28 0                  ## callingConventions.c:28:0
	movl	$6, -100(%rbp)
	.loc	1 29 0                  ## callingConventions.c:29:0
	movl	$-1, -104(%rbp)
	.loc	1 30 0                  ## callingConventions.c:30:0
	movb	-49(%rbp), %r9b
	movsbl	-49(%rbp), %eax
	addl	$1, %eax
	movb	%al, %r10b
	movl	-84(%rbp), %edx
	movl	-88(%rbp), %ecx
	movl	-92(%rbp), %r8d
	movl	-96(%rbp), %eax
	movl	-100(%rbp), %esi
	movl	-104(%rbp), %r11d
	movl	-44(%rbp), %ebx
	movl	-48(%rbp), %r14d
	movsbl	%r9b, %edi
	movsbl	%r10b, %r15d
	movl	%esi, -108(%rbp)        ## 4-byte Spill
	movl	%r15d, %esi
	movl	%eax, %r9d
	movl	-108(%rbp), %eax        ## 4-byte Reload
	movl	%eax, (%rsp)
	movl	%r11d, 8(%rsp)
	movl	%ebx, 16(%rsp)
	movl	%r14d, 24(%rsp)
	callq	_func4
	leaq	L_.str1(%rip), %rdi
	movl	%eax, -48(%rbp)
	.loc	1 31 0                  ## callingConventions.c:31:0
	movl	-48(%rbp), %esi
	movb	$0, %al
	callq	_printf
	movl	$0, %ecx
	.loc	1 32 0                  ## callingConventions.c:32:0
	movl	%eax, -112(%rbp)        ## 4-byte Spill
	movl	%ecx, %eax
	addq	$120, %rsp
	popq	%rbx
	popq	%r14
	popq	%r15
	popq	%rbp
	retq
Ltmp10:
Lfunc_end0:
	.cfi_endproc

	.globl	_func1
	.align	4, 0x90
_func1:                                 ## @func1
Lfunc_begin1:
	.loc	1 35 0                  ## callingConventions.c:35:0
	.cfi_startproc
## BB#0:
	pushq	%rbp
Ltmp13:
	.cfi_def_cfa_offset 16
Ltmp14:
	.cfi_offset %rbp, -16
	movq	%rsp, %rbp
Ltmp15:
	.cfi_def_cfa_register %rbp
	movl	%edi, -4(%rbp)
	.loc	1 36 0 prologue_end     ## callingConventions.c:36:0
Ltmp16:
	movl	-4(%rbp), %edi
	movl	%edi, %eax
	addl	$1, %eax
	movl	%eax, -4(%rbp)
	movl	%edi, %eax
	popq	%rbp
	retq
Ltmp17:
Lfunc_end1:
	.cfi_endproc

	.globl	_funcDouble
	.align	4, 0x90
_funcDouble:                            ## @funcDouble
Lfunc_begin2:
	.loc	1 48 0                  ## callingConventions.c:48:0
	.cfi_startproc
## BB#0:
	pushq	%rbp
Ltmp20:
	.cfi_def_cfa_offset 16
Ltmp21:
	.cfi_offset %rbp, -16
	movq	%rsp, %rbp
Ltmp22:
	.cfi_def_cfa_register %rbp
	movb	%sil, %al
	movl	%edi, -12(%rbp)
	movb	%al, -13(%rbp)
	movsd	%xmm0, -24(%rbp)
	.loc	1 49 0 prologue_end     ## callingConventions.c:49:0
Ltmp23:
	movsbl	-13(%rbp), %esi
	cmpl	$97, %esi
	jne	LBB2_2
## BB#1:
	.loc	1 50 0                  ## callingConventions.c:50:0
Ltmp24:
	cvtsi2sdl	-12(%rbp), %xmm0
	addsd	-24(%rbp), %xmm0
	movsd	%xmm0, -8(%rbp)
	jmp	LBB2_3
Ltmp25:
LBB2_2:
	.loc	1 53 0                  ## callingConventions.c:53:0
	movsd	-24(%rbp), %xmm0
	movsd	%xmm0, -8(%rbp)
Ltmp26:
LBB2_3:
	.loc	1 55 0                  ## callingConventions.c:55:0
	movsd	-8(%rbp), %xmm0
	popq	%rbp
	retq
Ltmp27:
Lfunc_end2:
	.cfi_endproc

	.globl	_func2
	.align	4, 0x90
_func2:                                 ## @func2
Lfunc_begin3:
	.loc	1 40 0                  ## callingConventions.c:40:0
	.cfi_startproc
## BB#0:
	pushq	%rbp
Ltmp30:
	.cfi_def_cfa_offset 16
Ltmp31:
	.cfi_offset %rbp, -16
	movq	%rsp, %rbp
Ltmp32:
	.cfi_def_cfa_register %rbp
	movb	%dl, %al
	movl	%edi, -8(%rbp)
	movl	%esi, -12(%rbp)
	movb	%al, -13(%rbp)
	.loc	1 41 0 prologue_end     ## callingConventions.c:41:0
Ltmp33:
	movsbl	-13(%rbp), %edx
	cmpl	$122, %edx
	jne	LBB3_2
## BB#1:
	.loc	1 42 0                  ## callingConventions.c:42:0
Ltmp34:
	movl	-8(%rbp), %eax
	movl	%eax, -4(%rbp)
	jmp	LBB3_3
Ltmp35:
LBB3_2:
	.loc	1 44 0                  ## callingConventions.c:44:0
	movl	-12(%rbp), %eax
	movl	%eax, -4(%rbp)
LBB3_3:
	.loc	1 45 0                  ## callingConventions.c:45:0
	movl	-4(%rbp), %eax
	popq	%rbp
	retq
Ltmp36:
Lfunc_end3:
	.cfi_endproc

	.globl	_func3
	.align	4, 0x90
_func3:                                 ## @func3
Lfunc_begin4:
	.loc	1 58 0                  ## callingConventions.c:58:0
	.cfi_startproc
## BB#0:
	pushq	%rbp
Ltmp39:
	.cfi_def_cfa_offset 16
Ltmp40:
	.cfi_offset %rbp, -16
	movq	%rsp, %rbp
Ltmp41:
	.cfi_def_cfa_register %rbp
	movq	%rdi, -16(%rbp)
	movl	%esi, -20(%rbp)
	movl	%edx, -24(%rbp)
	movl	%ecx, -28(%rbp)
	movl	%r8d, -32(%rbp)
	.loc	1 59 0 prologue_end     ## callingConventions.c:59:0
Ltmp42:
	movl	-28(%rbp), %ecx
	addl	-32(%rbp), %ecx
	cmpl	$10, %ecx
	jle	LBB4_2
## BB#1:
	.loc	1 60 0                  ## callingConventions.c:60:0
Ltmp43:
	movl	-20(%rbp), %eax
	addl	-24(%rbp), %eax
	movl	%eax, -4(%rbp)
	jmp	LBB4_5
Ltmp44:
LBB4_2:
	.loc	1 62 0                  ## callingConventions.c:62:0
	movq	-16(%rbp), %rax
	movsbl	1(%rax), %ecx
	cmpl	$97, %ecx
	jne	LBB4_4
## BB#3:
	.loc	1 63 0                  ## callingConventions.c:63:0
Ltmp45:
	movl	-20(%rbp), %eax
	imull	-24(%rbp), %eax
	movl	%eax, -4(%rbp)
	jmp	LBB4_5
Ltmp46:
LBB4_4:
	.loc	1 66 0                  ## callingConventions.c:66:0
	movl	$0, -4(%rbp)
Ltmp47:
LBB4_5:
	.loc	1 68 0                  ## callingConventions.c:68:0
	movl	-4(%rbp), %eax
	popq	%rbp
	retq
Ltmp48:
Lfunc_end4:
	.cfi_endproc

	.globl	_func4
	.align	4, 0x90
_func4:                                 ## @func4
Lfunc_begin5:
	.loc	1 72 0                  ## callingConventions.c:72:0
	.cfi_startproc
## BB#0:
	pushq	%rbp
Ltmp52:
	.cfi_def_cfa_offset 16
Ltmp53:
	.cfi_offset %rbp, -16
	movq	%rsp, %rbp
Ltmp54:
	.cfi_def_cfa_register %rbp
	pushq	%rbx
Ltmp55:
	.cfi_offset %rbx, -24
	movb	%sil, %al
	movb	%dil, %r10b
	movl	40(%rbp), %esi
	movl	32(%rbp), %edi
	movl	24(%rbp), %r11d
	movl	16(%rbp), %ebx
	movb	%r10b, -13(%rbp)
	movb	%al, -14(%rbp)
	movl	%edx, -20(%rbp)
	movl	%ecx, -24(%rbp)
	movl	%r8d, -28(%rbp)
	movl	%r9d, -32(%rbp)
	movl	%ebx, -36(%rbp)
	movl	%r11d, -40(%rbp)
	movl	%edi, -44(%rbp)
	movl	%esi, -48(%rbp)
	.loc	1 73 0 prologue_end     ## callingConventions.c:73:0
Ltmp56:
	movsbl	-13(%rbp), %ecx
	movsbl	-14(%rbp), %edx
	cmpl	%edx, %ecx
	jne	LBB5_2
## BB#1:
	.loc	1 74 0                  ## callingConventions.c:74:0
Ltmp57:
	movl	-20(%rbp), %eax
	addl	-24(%rbp), %eax
	movl	%eax, -12(%rbp)
	jmp	LBB5_7
Ltmp58:
LBB5_2:
	.loc	1 76 0                  ## callingConventions.c:76:0
	movl	-40(%rbp), %eax
	cmpl	-44(%rbp), %eax
	jle	LBB5_4
## BB#3:
	.loc	1 77 0                  ## callingConventions.c:77:0
Ltmp59:
	movl	-28(%rbp), %eax
	addl	-32(%rbp), %eax
	movl	%eax, -12(%rbp)
	jmp	LBB5_7
Ltmp60:
LBB5_4:
	.loc	1 79 0                  ## callingConventions.c:79:0
	movl	-40(%rbp), %eax
	cmpl	-48(%rbp), %eax
	jge	LBB5_6
## BB#5:
	.loc	1 80 0                  ## callingConventions.c:80:0
Ltmp61:
	movl	-36(%rbp), %eax
	movl	%eax, -12(%rbp)
	jmp	LBB5_7
Ltmp62:
LBB5_6:
	.loc	1 83 0                  ## callingConventions.c:83:0
	movl	-36(%rbp), %eax
	subl	-32(%rbp), %eax
	movl	%eax, -12(%rbp)
Ltmp63:
LBB5_7:
	.loc	1 85 0                  ## callingConventions.c:85:0
	movl	-12(%rbp), %eax
	popq	%rbx
	popq	%rbp
	retq
Ltmp64:
Lfunc_end5:
	.cfi_endproc

	.section	__TEXT,__cstring,cstring_literals
L_.str:                                 ## @.str
	.asciz	"rock"

L_.str1:                                ## @.str1
	.asciz	"y = %d"

	.section	__TEXT,__text,regular,pure_instructions
Ldebug_end0: