	.section	__TEXT,__text,regular,pure_instructions
	.macosx_version_min 10, 10
	.section	__TEXT,__text,regular,pure_instructions
	.globl	_main
	.align	4, 0x90
_main:                                  ## @main
Lfunc_begin0:
	.file	41 "main.cpp"
	.loc	41 8 0                  ## main.cpp:8:0
	.cfi_startproc
	.cfi_personality 155, ___gxx_personality_v0
Leh_func_begin0:
	.cfi_lsda 16, Lexception0
## BB#0:
	pushq	%rbp
Ltmp25:
	.cfi_def_cfa_offset 16
Ltmp26:
	.cfi_offset %rbp, -16
	movq	%rsp, %rbp
Ltmp27:
	.cfi_def_cfa_register %rbp
	subq	$160, %rsp
	##DEBUG_VALUE: main:argc <- undef
	##DEBUG_VALUE: main:argv <- undef
	movl	$0, -36(%rbp)
	movl	%edi, -40(%rbp)
	movq	%rsi, -48(%rbp)
	.loc	41 11 7 prologue_end    ## main.cpp:11:7
Ltmp28:
Ltmp0:
	movl	$1, %edi
	callq	__Z7throweri
Ltmp1:
	movl	%eax, -92(%rbp)         ## 4-byte Spill
	jmp	LBB0_1
LBB0_1:
	movl	-92(%rbp), %eax         ## 4-byte Reload
	movl	%eax, -52(%rbp)
	.loc	41 12 2                 ## main.cpp:12:2
	jmp	LBB0_9
LBB0_2:
Ltmp2:
	.loc	41 23 1                 ## main.cpp:23:1
	movl	%edx, %ecx
	movq	%rax, -64(%rbp)
	movl	%ecx, -68(%rbp)
## BB#3:
	.loc	41 12 2                 ## main.cpp:12:2
	movl	-68(%rbp), %eax
	movl	$1, %ecx
	cmpl	%ecx, %eax
	jne	LBB0_23
## BB#4:
Ltmp29:
	##DEBUG_VALUE: main:e <- [RBP+-80]
	movq	-64(%rbp), %rdi
	callq	___cxa_begin_catch
	movq	%rax, -80(%rbp)
Ltmp30:
	.loc	41 14 3                 ## main.cpp:14:3
Ltmp3:
	movq	__ZNSt3__14coutE@GOTPCREL(%rip), %rdi
	leaq	L_.str(%rip), %rsi
	callq	__ZNSt3__1lsINS_11char_traitsIcEEEERNS_13basic_ostreamIcT_EES6_PKc
Ltmp4:
	movq	%rax, -104(%rbp)        ## 8-byte Spill
	jmp	LBB0_5
LBB0_5:
	.loc	41 14 33                ## main.cpp:14:33
	movq	-80(%rbp), %rax
	movq	(%rax), %rcx
	movq	16(%rcx), %rcx
	movq	%rax, %rdi
	callq	*%rcx
	.loc	41 14 3                 ## main.cpp:14:3
Ltmp5:
	movq	-104(%rbp), %rdi        ## 8-byte Reload
	movq	%rax, %rsi
	callq	__ZNSt3__1lsINS_11char_traitsIcEEEERNS_13basic_ostreamIcT_EES6_PKc
Ltmp6:
	movq	%rax, -112(%rbp)        ## 8-byte Spill
	jmp	LBB0_6
LBB0_6:
	movq	-112(%rbp), %rax        ## 8-byte Reload
	movq	%rax, -24(%rbp)
	leaq	__ZNSt3__14endlIcNS_11char_traitsIcEEEERNS_13basic_ostreamIT_T0_EES7_(%rip), %rcx
	movq	%rcx, -32(%rbp)
	movq	-24(%rbp), %rdi
	.loc	18 310 12               ## /Applications/Xcode.app/Contents/Developer/Toolchains/XcodeDefault.xctoolchain/usr/bin/../include/c++/v1/ostream:310:12
Ltmp31:
Ltmp7:
	callq	*%rcx
Ltmp8:
	movq	%rax, -120(%rbp)        ## 8-byte Spill
	jmp	LBB0_7
LBB0_7:                                 ## %_ZNSt3__113basic_ostreamIcNS_11char_traitsIcEEElsEPFRS3_S4_E.exit
	jmp	LBB0_8
Ltmp32:
LBB0_8:
	.loc	41 15 2                 ## main.cpp:15:2
	callq	___cxa_end_catch
Ltmp33:
LBB0_9:
	.loc	41 17 7                 ## main.cpp:17:7
Ltmp12:
	movl	$-1, %edi
	callq	__Z7throweri
Ltmp13:
	movl	%eax, -124(%rbp)        ## 4-byte Spill
	jmp	LBB0_10
LBB0_10:
	movl	-124(%rbp), %eax        ## 4-byte Reload
	movl	%eax, -52(%rbp)
	.loc	41 18 2                 ## main.cpp:18:2
	jmp	LBB0_20
Ltmp34:
LBB0_11:
Ltmp9:
	.loc	41 23 1                 ## main.cpp:23:1
Ltmp35:
	movl	%edx, %ecx
	movq	%rax, -64(%rbp)
	movl	%ecx, -68(%rbp)
Ltmp36:
	.loc	41 23 1                 ## main.cpp:23:1
Ltmp10:
	callq	___cxa_end_catch
Ltmp11:
	jmp	LBB0_12
LBB0_12:
	jmp	LBB0_23
LBB0_13:
Ltmp14:
	.loc	41 23 1                 ## main.cpp:23:1
Ltmp37:
	movl	%edx, %ecx
	movq	%rax, -64(%rbp)
	movl	%ecx, -68(%rbp)
## BB#14:
	.loc	41 18 2                 ## main.cpp:18:2
	movl	-68(%rbp), %eax
	movl	$1, %ecx
	cmpl	%ecx, %eax
	jne	LBB0_23
## BB#15:
Ltmp38:
	##DEBUG_VALUE: main:e <- [RBP+-88]
	movq	-64(%rbp), %rdi
	callq	___cxa_begin_catch
	movq	%rax, -88(%rbp)
Ltmp39:
	.loc	41 20 3                 ## main.cpp:20:3
Ltmp15:
	movq	__ZNSt3__14coutE@GOTPCREL(%rip), %rdi
	leaq	L_.str(%rip), %rsi
	callq	__ZNSt3__1lsINS_11char_traitsIcEEEERNS_13basic_ostreamIcT_EES6_PKc
Ltmp16:
	movq	%rax, -136(%rbp)        ## 8-byte Spill
	jmp	LBB0_16
LBB0_16:
	.loc	41 20 33                ## main.cpp:20:33
	movq	-88(%rbp), %rax
	movq	(%rax), %rcx
	movq	16(%rcx), %rcx
	movq	%rax, %rdi
	callq	*%rcx
	.loc	41 20 3                 ## main.cpp:20:3
Ltmp17:
	movq	-136(%rbp), %rdi        ## 8-byte Reload
	movq	%rax, %rsi
	callq	__ZNSt3__1lsINS_11char_traitsIcEEEERNS_13basic_ostreamIcT_EES6_PKc
Ltmp18:
	movq	%rax, -144(%rbp)        ## 8-byte Spill
	jmp	LBB0_17
LBB0_17:
	movq	-144(%rbp), %rax        ## 8-byte Reload
	movq	%rax, -8(%rbp)
	leaq	__ZNSt3__14endlIcNS_11char_traitsIcEEEERNS_13basic_ostreamIT_T0_EES7_(%rip), %rcx
	movq	%rcx, -16(%rbp)
	movq	-8(%rbp), %rdi
	.loc	18 310 12               ## /Applications/Xcode.app/Contents/Developer/Toolchains/XcodeDefault.xctoolchain/usr/bin/../include/c++/v1/ostream:310:12
Ltmp40:
Ltmp19:
	callq	*%rcx
Ltmp20:
	movq	%rax, -152(%rbp)        ## 8-byte Spill
	jmp	LBB0_18
LBB0_18:                                ## %_ZNSt3__113basic_ostreamIcNS_11char_traitsIcEEElsEPFRS3_S4_E.exit2
	jmp	LBB0_19
Ltmp41:
LBB0_19:
	.loc	41 21 2                 ## main.cpp:21:2
	callq	___cxa_end_catch
Ltmp42:
LBB0_20:
	xorl	%eax, %eax
	.loc	41 22 2                 ## main.cpp:22:2
	addq	$160, %rsp
	popq	%rbp
	retq
LBB0_21:
Ltmp21:
	.loc	41 23 1                 ## main.cpp:23:1
Ltmp43:
	movl	%edx, %ecx
	movq	%rax, -64(%rbp)
	movl	%ecx, -68(%rbp)
Ltmp44:
	.loc	41 23 1                 ## main.cpp:23:1
Ltmp22:
	callq	___cxa_end_catch
Ltmp23:
	jmp	LBB0_22
LBB0_22:
	jmp	LBB0_23
LBB0_23:
	.loc	41 12 2                 ## main.cpp:12:2
Ltmp45:
	movq	-64(%rbp), %rdi
	callq	__Unwind_Resume
Ltmp46:
LBB0_24:
Ltmp24:
	.loc	41 23 1                 ## main.cpp:23:1
	movl	%edx, %ecx
	movq	%rax, %rdi
	movl	%ecx, -156(%rbp)        ## 4-byte Spill
	callq	___clang_call_terminate
Ltmp47:
Lfunc_end0:
	.cfi_endproc
Leh_func_end0:
	.section	__TEXT,__gcc_except_tab
	.align	2
GCC_except_table0:
Lexception0:
	.byte	255                     ## @LPStart Encoding = omit
	.byte	155                     ## @TType Encoding = indirect pcrel sdata4
	.asciz	"\322\201\200"          ## @TType base offset
	.byte	3                       ## Call site Encoding = udata4
	.ascii	"\303\001"              ## Call site table length
Lset0 = Ltmp0-Leh_func_begin0           ## >> Call Site 1 <<
	.long	Lset0
Lset1 = Ltmp1-Ltmp0                     ##   Call between Ltmp0 and Ltmp1
	.long	Lset1
Lset2 = Ltmp2-Leh_func_begin0           ##     jumps to Ltmp2
	.long	Lset2
	.byte	1                       ##   On action: 1
Lset3 = Ltmp1-Leh_func_begin0           ## >> Call Site 2 <<
	.long	Lset3
Lset4 = Ltmp3-Ltmp1                     ##   Call between Ltmp1 and Ltmp3
	.long	Lset4
	.long	0                       ##     has no landing pad
	.byte	0                       ##   On action: cleanup
Lset5 = Ltmp3-Leh_func_begin0           ## >> Call Site 3 <<
	.long	Lset5
Lset6 = Ltmp4-Ltmp3                     ##   Call between Ltmp3 and Ltmp4
	.long	Lset6
Lset7 = Ltmp9-Leh_func_begin0           ##     jumps to Ltmp9
	.long	Lset7
	.byte	0                       ##   On action: cleanup
Lset8 = Ltmp4-Leh_func_begin0           ## >> Call Site 4 <<
	.long	Lset8
Lset9 = Ltmp5-Ltmp4                     ##   Call between Ltmp4 and Ltmp5
	.long	Lset9
	.long	0                       ##     has no landing pad
	.byte	0                       ##   On action: cleanup
Lset10 = Ltmp5-Leh_func_begin0          ## >> Call Site 5 <<
	.long	Lset10
Lset11 = Ltmp8-Ltmp5                    ##   Call between Ltmp5 and Ltmp8
	.long	Lset11
Lset12 = Ltmp9-Leh_func_begin0          ##     jumps to Ltmp9
	.long	Lset12
	.byte	0                       ##   On action: cleanup
Lset13 = Ltmp8-Leh_func_begin0          ## >> Call Site 6 <<
	.long	Lset13
Lset14 = Ltmp12-Ltmp8                   ##   Call between Ltmp8 and Ltmp12
	.long	Lset14
	.long	0                       ##     has no landing pad
	.byte	0                       ##   On action: cleanup
Lset15 = Ltmp12-Leh_func_begin0         ## >> Call Site 7 <<
	.long	Lset15
Lset16 = Ltmp13-Ltmp12                  ##   Call between Ltmp12 and Ltmp13
	.long	Lset16
Lset17 = Ltmp14-Leh_func_begin0         ##     jumps to Ltmp14
	.long	Lset17
	.byte	1                       ##   On action: 1
Lset18 = Ltmp10-Leh_func_begin0         ## >> Call Site 8 <<
	.long	Lset18
Lset19 = Ltmp11-Ltmp10                  ##   Call between Ltmp10 and Ltmp11
	.long	Lset19
Lset20 = Ltmp24-Leh_func_begin0         ##     jumps to Ltmp24
	.long	Lset20
	.byte	3                       ##   On action: 2
Lset21 = Ltmp11-Leh_func_begin0         ## >> Call Site 9 <<
	.long	Lset21
Lset22 = Ltmp15-Ltmp11                  ##   Call between Ltmp11 and Ltmp15
	.long	Lset22
	.long	0                       ##     has no landing pad
	.byte	0                       ##   On action: cleanup
Lset23 = Ltmp15-Leh_func_begin0         ## >> Call Site 10 <<
	.long	Lset23
Lset24 = Ltmp16-Ltmp15                  ##   Call between Ltmp15 and Ltmp16
	.long	Lset24
Lset25 = Ltmp21-Leh_func_begin0         ##     jumps to Ltmp21
	.long	Lset25
	.byte	0                       ##   On action: cleanup
Lset26 = Ltmp16-Leh_func_begin0         ## >> Call Site 11 <<
	.long	Lset26
Lset27 = Ltmp17-Ltmp16                  ##   Call between Ltmp16 and Ltmp17
	.long	Lset27
	.long	0                       ##     has no landing pad
	.byte	0                       ##   On action: cleanup
Lset28 = Ltmp17-Leh_func_begin0         ## >> Call Site 12 <<
	.long	Lset28
Lset29 = Ltmp20-Ltmp17                  ##   Call between Ltmp17 and Ltmp20
	.long	Lset29
Lset30 = Ltmp21-Leh_func_begin0         ##     jumps to Ltmp21
	.long	Lset30
	.byte	0                       ##   On action: cleanup
Lset31 = Ltmp20-Leh_func_begin0         ## >> Call Site 13 <<
	.long	Lset31
Lset32 = Ltmp22-Ltmp20                  ##   Call between Ltmp20 and Ltmp22
	.long	Lset32
	.long	0                       ##     has no landing pad
	.byte	0                       ##   On action: cleanup
Lset33 = Ltmp22-Leh_func_begin0         ## >> Call Site 14 <<
	.long	Lset33
Lset34 = Ltmp23-Ltmp22                  ##   Call between Ltmp22 and Ltmp23
	.long	Lset34
Lset35 = Ltmp24-Leh_func_begin0         ##     jumps to Ltmp24
	.long	Lset35
	.byte	3                       ##   On action: 2
Lset36 = Ltmp23-Leh_func_begin0         ## >> Call Site 15 <<
	.long	Lset36
Lset37 = Leh_func_end0-Ltmp23           ##   Call between Ltmp23 and Leh_func_end0
	.long	Lset37
	.long	0                       ##     has no landing pad
	.byte	0                       ##   On action: cleanup
	.byte	1                       ## >> Action Record 1 <<
                                        ##   Catch TypeInfo 1
	.byte	0                       ##   No further actions
	.byte	2                       ## >> Action Record 2 <<
                                        ##   Catch TypeInfo 2
	.byte	0                       ##   No further actions
                                        ## >> Catch TypeInfos <<
	.long	0                       ## TypeInfo 2
	.long	__ZTISt9exception@GOTPCREL+4 ## TypeInfo 1
	.align	2

	.section	__TEXT,__text,regular,pure_instructions
	.globl	__Z7throweri
	.align	4, 0x90
__Z7throweri:                           ## @_Z7throweri
Lfunc_begin1:
	.loc	41 26 0                 ## main.cpp:26:0
	.cfi_startproc
	.cfi_personality 155, ___gxx_personality_v0
Leh_func_begin1:
	.cfi_lsda 16, Lexception1
## BB#0:
	pushq	%rbp
Ltmp51:
	.cfi_def_cfa_offset 16
Ltmp52:
	.cfi_offset %rbp, -16
	movq	%rsp, %rbp
Ltmp53:
	.cfi_def_cfa_register %rbp
	subq	$80, %rsp
	movl	%edi, -36(%rbp)
	.loc	41 27 6 prologue_end    ## main.cpp:27:6
Ltmp54:
	cmpl	$0, -36(%rbp)
	jge	LBB1_5
## BB#1:
	movl	$16, %eax
	movl	%eax, %edi
	.loc	41 28 6                 ## main.cpp:28:6
Ltmp55:
	callq	___cxa_allocate_exception
	movq	%rax, %rdi
	movq	%rax, -24(%rbp)
	leaq	L_.str1(%rip), %rax
	movq	%rax, -32(%rbp)
	movq	-24(%rbp), %rcx
	.loc	21 113 96               ## /Applications/Xcode.app/Contents/Developer/Toolchains/XcodeDefault.xctoolchain/usr/bin/../include/c++/v1/stdexcept:113:96
Ltmp56:
	movq	%rcx, -8(%rbp)
	movq	%rax, -16(%rbp)
	movq	-8(%rbp), %rcx
	.loc	21 113 95               ## /Applications/Xcode.app/Contents/Developer/Toolchains/XcodeDefault.xctoolchain/usr/bin/../include/c++/v1/stdexcept:113:95
Ltmp57:
Ltmp48:
	movq	%rdi, -64(%rbp)         ## 8-byte Spill
	movq	%rcx, %rdi
	movq	%rax, %rsi
	movq	%rcx, -72(%rbp)         ## 8-byte Spill
	callq	__ZNSt11logic_errorC2EPKc
Ltmp49:
	jmp	LBB1_2
LBB1_2:                                 ## %_ZNSt16invalid_argumentC1EPKc.exit
	movq	__ZTVSt16invalid_argument@GOTPCREL(%rip), %rax
	addq	$16, %rax
	movq	-72(%rbp), %rcx         ## 8-byte Reload
	movq	%rax, (%rcx)
Ltmp58:
## BB#3:
	movq	__ZTISt16invalid_argument@GOTPCREL(%rip), %rax
	movq	__ZNSt16invalid_argumentD1Ev@GOTPCREL(%rip), %rcx
	.loc	41 28 6                 ## main.cpp:28:6
	movq	-64(%rbp), %rdi         ## 8-byte Reload
	movq	%rax, %rsi
	movq	%rcx, %rdx
	callq	___cxa_throw
LBB1_4:
Ltmp50:
	.loc	41 31 1                 ## main.cpp:31:1
	movl	%edx, %ecx
	movq	%rax, -48(%rbp)
	movl	%ecx, -52(%rbp)
	movq	-64(%rbp), %rdi         ## 8-byte Reload
	callq	___cxa_free_exception
	jmp	LBB1_6
Ltmp59:
LBB1_5:
	.loc	41 30 2                 ## main.cpp:30:2
	movl	-36(%rbp), %eax
	addl	$1, %eax
	addq	$80, %rsp
	popq	%rbp
	retq
LBB1_6:
	.loc	41 31 1                 ## main.cpp:31:1
Ltmp60:
	movq	-48(%rbp), %rdi
	callq	__Unwind_Resume
Ltmp61:
Lfunc_end1:
	.cfi_endproc
Leh_func_end1:
	.section	__TEXT,__gcc_except_tab
	.align	2
GCC_except_table1:
Lexception1:
	.byte	255                     ## @LPStart Encoding = omit
	.byte	155                     ## @TType Encoding = indirect pcrel sdata4
	.byte	41                      ## @TType base offset
	.byte	3                       ## Call site Encoding = udata4
	.byte	39                      ## Call site table length
Lset38 = Leh_func_begin1-Leh_func_begin1 ## >> Call Site 1 <<
	.long	Lset38
Lset39 = Ltmp48-Leh_func_begin1         ##   Call between Leh_func_begin1 and Ltmp48
	.long	Lset39
	.long	0                       ##     has no landing pad
	.byte	0                       ##   On action: cleanup
Lset40 = Ltmp48-Leh_func_begin1         ## >> Call Site 2 <<
	.long	Lset40
Lset41 = Ltmp49-Ltmp48                  ##   Call between Ltmp48 and Ltmp49
	.long	Lset41
Lset42 = Ltmp50-Leh_func_begin1         ##     jumps to Ltmp50
	.long	Lset42
	.byte	0                       ##   On action: cleanup
Lset43 = Ltmp49-Leh_func_begin1         ## >> Call Site 3 <<
	.long	Lset43
Lset44 = Leh_func_end1-Ltmp49           ##   Call between Ltmp49 and Leh_func_end1
	.long	Lset44
	.long	0                       ##     has no landing pad
	.byte	0                       ##   On action: cleanup
	.align	2

	.section	__TEXT,__textcoal_nt,coalesced,pure_instructions
	.globl	__ZNSt3__1lsINS_11char_traitsIcEEEERNS_13basic_ostreamIcT_EES6_PKc
	.weak_def_can_be_hidden	__ZNSt3__1lsINS_11char_traitsIcEEEERNS_13basic_ostreamIcT_EES6_PKc
	.align	4, 0x90
__ZNSt3__1lsINS_11char_traitsIcEEEERNS_13basic_ostreamIcT_EES6_PKc: ## @_ZNSt3__1lsINS_11char_traitsIcEEEERNS_13basic_ostreamIcT_EES6_PKc
Lfunc_begin2:
	.loc	18 881 0                ## /Applications/Xcode.app/Contents/Developer/Toolchains/XcodeDefault.xctoolchain/usr/bin/../include/c++/v1/ostream:881:0
	.cfi_startproc
## BB#0:
	pushq	%rbp
Ltmp62:
	.cfi_def_cfa_offset 16
Ltmp63:
	.cfi_offset %rbp, -16
	movq	%rsp, %rbp
Ltmp64:
	.cfi_def_cfa_register %rbp
	subq	$48, %rsp
	movq	%rdi, -16(%rbp)
	movq	%rsi, -24(%rbp)
	.loc	18 882 12 prologue_end  ## /Applications/Xcode.app/Contents/Developer/Toolchains/XcodeDefault.xctoolchain/usr/bin/../include/c++/v1/ostream:882:12
Ltmp65:
	movq	-16(%rbp), %rdi
	movq	-24(%rbp), %rsi
	.loc	18 882 57               ## /Applications/Xcode.app/Contents/Developer/Toolchains/XcodeDefault.xctoolchain/usr/bin/../include/c++/v1/ostream:882:57
	movq	-24(%rbp), %rax
	movq	%rax, -8(%rbp)
	.loc	5 653 56                ## /Applications/Xcode.app/Contents/Developer/Toolchains/XcodeDefault.xctoolchain/usr/bin/../include/c++/v1/string:653:56
Ltmp66:
	movq	-8(%rbp), %rax
	movq	%rdi, -32(%rbp)         ## 8-byte Spill
	movq	%rax, %rdi
	movq	%rsi, -40(%rbp)         ## 8-byte Spill
	callq	_strlen
Ltmp67:
	.loc	18 882 12               ## /Applications/Xcode.app/Contents/Developer/Toolchains/XcodeDefault.xctoolchain/usr/bin/../include/c++/v1/ostream:882:12
	movq	-32(%rbp), %rdi         ## 8-byte Reload
	movq	-40(%rbp), %rsi         ## 8-byte Reload
	movq	%rax, %rdx
	callq	__ZNSt3__124__put_character_sequenceIcNS_11char_traitsIcEEEERNS_13basic_ostreamIT_T0_EES7_PKS4_m
	addq	$48, %rsp
	popq	%rbp
	retq
Ltmp68:
Lfunc_end2:
	.cfi_endproc

	.private_extern	__ZNSt3__14endlIcNS_11char_traitsIcEEEERNS_13basic_ostreamIT_T0_EES7_
	.globl	__ZNSt3__14endlIcNS_11char_traitsIcEEEERNS_13basic_ostreamIT_T0_EES7_
	.weak_definition	__ZNSt3__14endlIcNS_11char_traitsIcEEEERNS_13basic_ostreamIT_T0_EES7_
	.align	4, 0x90
__ZNSt3__14endlIcNS_11char_traitsIcEEEERNS_13basic_ostreamIT_T0_EES7_: ## @_ZNSt3__14endlIcNS_11char_traitsIcEEEERNS_13basic_ostreamIT_T0_EES7_
Lfunc_begin3:
	.loc	18 1021 0               ## /Applications/Xcode.app/Contents/Developer/Toolchains/XcodeDefault.xctoolchain/usr/bin/../include/c++/v1/ostream:1021:0
	.cfi_startproc
	.cfi_personality 155, ___gxx_personality_v0
Leh_func_begin3:
	.cfi_lsda 16, Lexception3
## BB#0:
	pushq	%rbp
Ltmp77:
	.cfi_def_cfa_offset 16
Ltmp78:
	.cfi_offset %rbp, -16
	movq	%rsp, %rbp
Ltmp79:
	.cfi_def_cfa_register %rbp
	subq	$144, %rsp
	##DEBUG_VALUE: endl<char, std::__1::char_traits<char> >:__os <- undef
Ltmp80:
	##DEBUG_VALUE: widen:this <- undef
	##DEBUG_VALUE: widen:__c <- undef
	##DEBUG_VALUE: use_facet<std::__1::ctype<char> >:__l <- undef
	movq	%rdi, -72(%rbp)
	.loc	18 1022 5 prologue_end  ## /Applications/Xcode.app/Contents/Developer/Toolchains/XcodeDefault.xctoolchain/usr/bin/../include/c++/v1/ostream:1022:5
Ltmp81:
	movq	%rdi, %rax
	.loc	18 1022 14              ## /Applications/Xcode.app/Contents/Developer/Toolchains/XcodeDefault.xctoolchain/usr/bin/../include/c++/v1/ostream:1022:14
	movq	(%rdi), %rcx
	movq	-24(%rcx), %rcx
	addq	%rcx, %rdi
	movq	%rdi, -32(%rbp)
	movb	$10, -33(%rbp)
	movq	-32(%rbp), %rsi
	leaq	-48(%rbp), %rcx
	.loc	2 734 41                ## /Applications/Xcode.app/Contents/Developer/Toolchains/XcodeDefault.xctoolchain/usr/bin/../include/c++/v1/ios:734:41
Ltmp82:
	movq	%rcx, %rdi
	movq	%rax, -80(%rbp)         ## 8-byte Spill
	movq	%rcx, -88(%rbp)         ## 8-byte Spill
	callq	__ZNKSt3__18ios_base6getlocEv
	.loc	2 734 12                ## /Applications/Xcode.app/Contents/Developer/Toolchains/XcodeDefault.xctoolchain/usr/bin/../include/c++/v1/ios:734:12
	movq	-88(%rbp), %rax         ## 8-byte Reload
	movq	%rax, -24(%rbp)
	.loc	4 181 40                ## /Applications/Xcode.app/Contents/Developer/Toolchains/XcodeDefault.xctoolchain/usr/bin/../include/c++/v1/__locale:181:40
Ltmp83:
Ltmp69:
	movq	__ZNSt3__15ctypeIcE2idE@GOTPCREL(%rip), %rsi
	movq	%rax, %rdi
	callq	__ZNKSt3__16locale9use_facetERNS0_2idE
Ltmp70:
	movq	%rax, -96(%rbp)         ## 8-byte Spill
	jmp	LBB3_1
Ltmp84:
LBB3_1:                                 ## %_ZNSt3__19use_facetINS_5ctypeIcEEEERKT_RKNS_6localeE.exit.i
	.loc	2 734 12                ## /Applications/Xcode.app/Contents/Developer/Toolchains/XcodeDefault.xctoolchain/usr/bin/../include/c++/v1/ios:734:12
	movb	-33(%rbp), %al
	movq	-96(%rbp), %rcx         ## 8-byte Reload
	movq	%rcx, -8(%rbp)
	movb	%al, -9(%rbp)
	movq	-8(%rbp), %rdx
	.loc	4 585 16                ## /Applications/Xcode.app/Contents/Developer/Toolchains/XcodeDefault.xctoolchain/usr/bin/../include/c++/v1/__locale:585:16
Ltmp85:
	movq	(%rdx), %rsi
	movq	56(%rsi), %rsi
	movsbl	-9(%rbp), %edi
Ltmp71:
	movl	%edi, -100(%rbp)        ## 4-byte Spill
	movq	%rdx, %rdi
	movl	-100(%rbp), %r8d        ## 4-byte Reload
	movq	%rsi, -112(%rbp)        ## 8-byte Spill
	movl	%r8d, %esi
	movq	-112(%rbp), %rdx        ## 8-byte Reload
	callq	*%rdx
Ltmp72:
	movb	%al, -113(%rbp)         ## 1-byte Spill
	jmp	LBB3_5
Ltmp86:
LBB3_2:
Ltmp73:
	.loc	2 735 1                 ## /Applications/Xcode.app/Contents/Developer/Toolchains/XcodeDefault.xctoolchain/usr/bin/../include/c++/v1/ios:735:1
	movl	%edx, %ecx
	movq	%rax, -56(%rbp)
	movl	%ecx, -60(%rbp)
Ltmp74:
	leaq	-48(%rbp), %rdi
	callq	__ZNSt3__16localeD1Ev
Ltmp75:
	jmp	LBB3_3
LBB3_3:
	movq	-56(%rbp), %rdi
	callq	__Unwind_Resume
LBB3_4:
Ltmp76:
	movl	%edx, %ecx
	movq	%rax, %rdi
	movl	%ecx, -120(%rbp)        ## 4-byte Spill
	callq	___clang_call_terminate
LBB3_5:                                 ## %_ZNKSt3__19basic_iosIcNS_11char_traitsIcEEE5widenEc.exit
	leaq	-48(%rbp), %rdi
	.loc	2 734 12                ## /Applications/Xcode.app/Contents/Developer/Toolchains/XcodeDefault.xctoolchain/usr/bin/../include/c++/v1/ios:734:12
	callq	__ZNSt3__16localeD1Ev
Ltmp87:
	.loc	18 1022 5               ## /Applications/Xcode.app/Contents/Developer/Toolchains/XcodeDefault.xctoolchain/usr/bin/../include/c++/v1/ostream:1022:5
	movq	-80(%rbp), %rdi         ## 8-byte Reload
	movb	-113(%rbp), %al         ## 1-byte Reload
	movsbl	%al, %esi
	callq	__ZNSt3__113basic_ostreamIcNS_11char_traitsIcEEE3putEc
	.loc	18 1023 5               ## /Applications/Xcode.app/Contents/Developer/Toolchains/XcodeDefault.xctoolchain/usr/bin/../include/c++/v1/ostream:1023:5
	movq	-72(%rbp), %rdi
	movq	%rax, -128(%rbp)        ## 8-byte Spill
	callq	__ZNSt3__113basic_ostreamIcNS_11char_traitsIcEEE5flushEv
	.loc	18 1024 5               ## /Applications/Xcode.app/Contents/Developer/Toolchains/XcodeDefault.xctoolchain/usr/bin/../include/c++/v1/ostream:1024:5
	movq	-72(%rbp), %rdi
	movq	%rax, -136(%rbp)        ## 8-byte Spill
	movq	%rdi, %rax
	addq	$144, %rsp
	popq	%rbp
	retq
Ltmp88:
Lfunc_end3:
	.cfi_endproc
Leh_func_end3:
	.section	__TEXT,__gcc_except_tab
	.align	2
GCC_except_table3:
Lexception3:
	.byte	255                     ## @LPStart Encoding = omit
	.byte	155                     ## @TType Encoding = indirect pcrel sdata4
	.asciz	"\274"                  ## @TType base offset
	.byte	3                       ## Call site Encoding = udata4
	.byte	52                      ## Call site table length
Lset45 = Leh_func_begin3-Leh_func_begin3 ## >> Call Site 1 <<
	.long	Lset45
Lset46 = Ltmp69-Leh_func_begin3         ##   Call between Leh_func_begin3 and Ltmp69
	.long	Lset46
	.long	0                       ##     has no landing pad
	.byte	0                       ##   On action: cleanup
Lset47 = Ltmp69-Leh_func_begin3         ## >> Call Site 2 <<
	.long	Lset47
Lset48 = Ltmp72-Ltmp69                  ##   Call between Ltmp69 and Ltmp72
	.long	Lset48
Lset49 = Ltmp73-Leh_func_begin3         ##     jumps to Ltmp73
	.long	Lset49
	.byte	0                       ##   On action: cleanup
Lset50 = Ltmp74-Leh_func_begin3         ## >> Call Site 3 <<
	.long	Lset50
Lset51 = Ltmp75-Ltmp74                  ##   Call between Ltmp74 and Ltmp75
	.long	Lset51
Lset52 = Ltmp76-Leh_func_begin3         ##     jumps to Ltmp76
	.long	Lset52
	.byte	1                       ##   On action: 1
Lset53 = Ltmp75-Leh_func_begin3         ## >> Call Site 4 <<
	.long	Lset53
Lset54 = Leh_func_end3-Ltmp75           ##   Call between Ltmp75 and Leh_func_end3
	.long	Lset54
	.long	0                       ##     has no landing pad
	.byte	0                       ##   On action: cleanup
	.byte	1                       ## >> Action Record 1 <<
                                        ##   Catch TypeInfo 1
	.byte	0                       ##   No further actions
                                        ## >> Catch TypeInfos <<
	.long	0                       ## TypeInfo 1
	.align	2

	.section	__TEXT,__textcoal_nt,coalesced,pure_instructions
	.private_extern	___clang_call_terminate
	.globl	___clang_call_terminate
	.weak_def_can_be_hidden	___clang_call_terminate
	.align	4, 0x90
___clang_call_terminate:                ## @__clang_call_terminate
	.cfi_startproc
## BB#0:
	pushq	%rbp
Ltmp89:
	.cfi_def_cfa_offset 16
Ltmp90:
	.cfi_offset %rbp, -16
	movq	%rsp, %rbp
Ltmp91:
	.cfi_def_cfa_register %rbp
	subq	$16, %rsp
	callq	___cxa_begin_catch
	movq	%rax, -8(%rbp)          ## 8-byte Spill
	callq	__ZSt9terminatev
	.cfi_endproc

	.globl	__ZNSt3__124__put_character_sequenceIcNS_11char_traitsIcEEEERNS_13basic_ostreamIT_T0_EES7_PKS4_m
	.weak_def_can_be_hidden	__ZNSt3__124__put_character_sequenceIcNS_11char_traitsIcEEEERNS_13basic_ostreamIT_T0_EES7_PKS4_m
	.align	4, 0x90
__ZNSt3__124__put_character_sequenceIcNS_11char_traitsIcEEEERNS_13basic_ostreamIT_T0_EES7_PKS4_m: ## @_ZNSt3__124__put_character_sequenceIcNS_11char_traitsIcEEEERNS_13basic_ostreamIT_T0_EES7_PKS4_m
Lfunc_begin5:
	.loc	18 734 0                ## /Applications/Xcode.app/Contents/Developer/Toolchains/XcodeDefault.xctoolchain/usr/bin/../include/c++/v1/ostream:734:0
	.cfi_startproc
	.cfi_personality 155, ___gxx_personality_v0
Leh_func_begin5:
	.cfi_lsda 16, Lexception5
## BB#0:
	pushq	%rbp
Ltmp122:
	.cfi_def_cfa_offset 16
Ltmp123:
	.cfi_offset %rbp, -16
	movq	%rsp, %rbp
Ltmp124:
	.cfi_def_cfa_register %rbp
	subq	$416, %rsp              ## imm = 0x1A0
	##DEBUG_VALUE: __put_character_sequence<char, std::__1::char_traits<char> >:__os <- undef
	##DEBUG_VALUE: __put_character_sequence<char, std::__1::char_traits<char> >:__str <- undef
	##DEBUG_VALUE: __put_character_sequence<char, std::__1::char_traits<char> >:__len <- undef
	movq	%rdi, -208(%rbp)
	movq	%rsi, -216(%rbp)
	movq	%rdx, -224(%rbp)
	.loc	18 739 9 prologue_end   ## /Applications/Xcode.app/Contents/Developer/Toolchains/XcodeDefault.xctoolchain/usr/bin/../include/c++/v1/ostream:739:9
Ltmp125:
	movq	-208(%rbp), %rsi
	.loc	18 739 57               ## /Applications/Xcode.app/Contents/Developer/Toolchains/XcodeDefault.xctoolchain/usr/bin/../include/c++/v1/ostream:739:57
Ltmp92:
	leaq	-240(%rbp), %rdi
	callq	__ZNSt3__113basic_ostreamIcNS_11char_traitsIcEEE6sentryC1ERS3_
Ltmp93:
	jmp	LBB5_1
LBB5_1:
	leaq	-240(%rbp), %rax
	.loc	18 740 13               ## /Applications/Xcode.app/Contents/Developer/Toolchains/XcodeDefault.xctoolchain/usr/bin/../include/c++/v1/ostream:740:13
Ltmp126:
	movq	%rax, -200(%rbp)
	movq	-200(%rbp), %rax
	.loc	18 228 32               ## /Applications/Xcode.app/Contents/Developer/Toolchains/XcodeDefault.xctoolchain/usr/bin/../include/c++/v1/ostream:228:32
Ltmp127:
	movb	(%rax), %cl
	movb	%cl, -273(%rbp)         ## 1-byte Spill
Ltmp128:
## BB#2:
	.loc	18 740 13               ## /Applications/Xcode.app/Contents/Developer/Toolchains/XcodeDefault.xctoolchain/usr/bin/../include/c++/v1/ostream:740:13
	movb	-273(%rbp), %al         ## 1-byte Reload
	testb	$1, %al
	jne	LBB5_3
	jmp	LBB5_26
LBB5_3:
	leaq	-264(%rbp), %rax
	.loc	18 743 17               ## /Applications/Xcode.app/Contents/Developer/Toolchains/XcodeDefault.xctoolchain/usr/bin/../include/c++/v1/ostream:743:17
Ltmp129:
	movq	-208(%rbp), %rcx
	movq	%rax, -184(%rbp)
	movq	%rcx, -192(%rbp)
	movq	-184(%rbp), %rax
	.loc	19 897 33               ## /Applications/Xcode.app/Contents/Developer/Toolchains/XcodeDefault.xctoolchain/usr/bin/../include/c++/v1/iterator:897:33
Ltmp130:
	movq	-192(%rbp), %rcx
	movq	%rax, -152(%rbp)
	movq	%rcx, -160(%rbp)
	movq	-152(%rbp), %rax
	.loc	19 897 19               ## /Applications/Xcode.app/Contents/Developer/Toolchains/XcodeDefault.xctoolchain/usr/bin/../include/c++/v1/iterator:897:19
Ltmp131:
	movq	-160(%rbp), %rcx
	movq	(%rcx), %rdx
	movq	-24(%rdx), %rdx
	addq	%rdx, %rcx
	movq	%rcx, -144(%rbp)
	movq	-144(%rbp), %rcx
	.loc	2 696 66                ## /Applications/Xcode.app/Contents/Developer/Toolchains/XcodeDefault.xctoolchain/usr/bin/../include/c++/v1/ios:696:66
Ltmp132:
	movq	%rcx, -136(%rbp)
	movq	-136(%rbp), %rcx
	.loc	2 337 48                ## /Applications/Xcode.app/Contents/Developer/Toolchains/XcodeDefault.xctoolchain/usr/bin/../include/c++/v1/ios:337:48
Ltmp133:
	movq	40(%rcx), %rcx
Ltmp134:
	.loc	19 897 19               ## /Applications/Xcode.app/Contents/Developer/Toolchains/XcodeDefault.xctoolchain/usr/bin/../include/c++/v1/iterator:897:19
	movq	%rcx, (%rax)
Ltmp135:
	.loc	18 743 17               ## /Applications/Xcode.app/Contents/Developer/Toolchains/XcodeDefault.xctoolchain/usr/bin/../include/c++/v1/ostream:743:17
	movq	-216(%rbp), %rsi
	.loc	18 745 35               ## /Applications/Xcode.app/Contents/Developer/Toolchains/XcodeDefault.xctoolchain/usr/bin/../include/c++/v1/ostream:745:35
	movq	-208(%rbp), %rax
	movq	(%rax), %rcx
	movq	-24(%rcx), %rcx
	addq	%rcx, %rax
	movq	%rax, -96(%rbp)
	movq	-96(%rbp), %rax
	.loc	2 437 5                 ## /Applications/Xcode.app/Contents/Developer/Toolchains/XcodeDefault.xctoolchain/usr/bin/../include/c++/v1/ios:437:5
Ltmp136:
	movl	8(%rax), %edi
	movq	%rsi, -288(%rbp)        ## 8-byte Spill
	movl	%edi, -292(%rbp)        ## 4-byte Spill
Ltmp137:
## BB#4:
	.loc	18 745 35               ## /Applications/Xcode.app/Contents/Developer/Toolchains/XcodeDefault.xctoolchain/usr/bin/../include/c++/v1/ostream:745:35
	movl	-292(%rbp), %eax        ## 4-byte Reload
	andl	$176, %eax
	cmpl	$32, %eax
	jne	LBB5_6
## BB#5:
	movq	-216(%rbp), %rax
	addq	-224(%rbp), %rax
	movq	%rax, -304(%rbp)        ## 8-byte Spill
	jmp	LBB5_7
LBB5_6:
	movq	-216(%rbp), %rax
	movq	%rax, -304(%rbp)        ## 8-byte Spill
LBB5_7:
	movq	-304(%rbp), %rax        ## 8-byte Reload
	.loc	18 743 17               ## /Applications/Xcode.app/Contents/Developer/Toolchains/XcodeDefault.xctoolchain/usr/bin/../include/c++/v1/ostream:743:17
	movq	-216(%rbp), %rcx
	addq	-224(%rbp), %rcx
	movq	-208(%rbp), %rdx
	movq	(%rdx), %rsi
	movq	-24(%rsi), %rsi
	addq	%rsi, %rdx
	.loc	18 750 34               ## /Applications/Xcode.app/Contents/Developer/Toolchains/XcodeDefault.xctoolchain/usr/bin/../include/c++/v1/ostream:750:34
	movq	-208(%rbp), %rsi
	movq	(%rsi), %rdi
	movq	-24(%rdi), %rdi
	addq	%rdi, %rsi
	movq	%rsi, -80(%rbp)
	movq	-80(%rbp), %rsi
	.loc	2 742 9                 ## /Applications/Xcode.app/Contents/Developer/Toolchains/XcodeDefault.xctoolchain/usr/bin/../include/c++/v1/ios:742:9
Ltmp138:
	movl	144(%rsi), %r8d
	movl	$-1, -4(%rbp)
	movl	%r8d, -8(%rbp)
	.loc	5 681 10                ## /Applications/Xcode.app/Contents/Developer/Toolchains/XcodeDefault.xctoolchain/usr/bin/../include/c++/v1/string:681:10
Ltmp139:
	movl	-4(%rbp), %r8d
Ltmp140:
	.loc	2 742 9                 ## /Applications/Xcode.app/Contents/Developer/Toolchains/XcodeDefault.xctoolchain/usr/bin/../include/c++/v1/ios:742:9
	cmpl	-8(%rbp), %r8d
	movq	%rax, -312(%rbp)        ## 8-byte Spill
	movq	%rcx, -320(%rbp)        ## 8-byte Spill
	movq	%rdx, -328(%rbp)        ## 8-byte Spill
	movq	%rsi, -336(%rbp)        ## 8-byte Spill
	jne	LBB5_16
## BB#8:
	.loc	2 743 19                ## /Applications/Xcode.app/Contents/Developer/Toolchains/XcodeDefault.xctoolchain/usr/bin/../include/c++/v1/ios:743:19
	movq	-336(%rbp), %rax        ## 8-byte Reload
	movq	%rax, -40(%rbp)
	movb	$32, -41(%rbp)
	movq	-40(%rbp), %rsi
	.loc	2 734 41                ## /Applications/Xcode.app/Contents/Developer/Toolchains/XcodeDefault.xctoolchain/usr/bin/../include/c++/v1/ios:734:41
Ltmp141:
Ltmp94:
	leaq	-56(%rbp), %rdi
	callq	__ZNKSt3__18ios_base6getlocEv
Ltmp95:
	jmp	LBB5_9
LBB5_9:                                 ## %.noexc
	leaq	-56(%rbp), %rax
	.loc	2 734 12                ## /Applications/Xcode.app/Contents/Developer/Toolchains/XcodeDefault.xctoolchain/usr/bin/../include/c++/v1/ios:734:12
	movq	%rax, -32(%rbp)
	.loc	4 181 40                ## /Applications/Xcode.app/Contents/Developer/Toolchains/XcodeDefault.xctoolchain/usr/bin/../include/c++/v1/__locale:181:40
Ltmp142:
Ltmp96:
	movq	__ZNSt3__15ctypeIcE2idE@GOTPCREL(%rip), %rsi
	movq	%rax, %rdi
	callq	__ZNKSt3__16locale9use_facetERNS0_2idE
Ltmp97:
	movq	%rax, -344(%rbp)        ## 8-byte Spill
	jmp	LBB5_10
Ltmp143:
LBB5_10:                                ## %_ZNSt3__19use_facetINS_5ctypeIcEEEERKT_RKNS_6localeE.exit.i.i
	.loc	2 734 12                ## /Applications/Xcode.app/Contents/Developer/Toolchains/XcodeDefault.xctoolchain/usr/bin/../include/c++/v1/ios:734:12
	movb	-41(%rbp), %al
	movq	-344(%rbp), %rcx        ## 8-byte Reload
	movq	%rcx, -16(%rbp)
	movb	%al, -17(%rbp)
	movq	-16(%rbp), %rdx
	.loc	4 585 16                ## /Applications/Xcode.app/Contents/Developer/Toolchains/XcodeDefault.xctoolchain/usr/bin/../include/c++/v1/__locale:585:16
Ltmp144:
	movq	(%rdx), %rsi
	movq	56(%rsi), %rsi
	movsbl	-17(%rbp), %edi
Ltmp98:
	movl	%edi, -348(%rbp)        ## 4-byte Spill
	movq	%rdx, %rdi
	movl	-348(%rbp), %r8d        ## 4-byte Reload
	movq	%rsi, -360(%rbp)        ## 8-byte Spill
	movl	%r8d, %esi
	movq	-360(%rbp), %rdx        ## 8-byte Reload
	callq	*%rdx
Ltmp99:
	movb	%al, -361(%rbp)         ## 1-byte Spill
	jmp	LBB5_14
Ltmp145:
LBB5_11:
Ltmp100:
	.loc	2 735 1                 ## /Applications/Xcode.app/Contents/Developer/Toolchains/XcodeDefault.xctoolchain/usr/bin/../include/c++/v1/ios:735:1
	movl	%edx, %ecx
	movq	%rax, -64(%rbp)
	movl	%ecx, -68(%rbp)
Ltmp101:
	leaq	-56(%rbp), %rdi
	callq	__ZNSt3__16localeD1Ev
Ltmp102:
	jmp	LBB5_12
LBB5_12:
	movq	-64(%rbp), %rax
	movl	-68(%rbp), %ecx
	movq	%rax, -376(%rbp)        ## 8-byte Spill
	movl	%ecx, -380(%rbp)        ## 4-byte Spill
	jmp	LBB5_24
LBB5_13:
Ltmp103:
	movl	%edx, %ecx
	movq	%rax, %rdi
	movl	%ecx, -384(%rbp)        ## 4-byte Spill
	callq	___clang_call_terminate
LBB5_14:                                ## %_ZNKSt3__19basic_iosIcNS_11char_traitsIcEEE5widenEc.exit.i
	.loc	2 734 12                ## /Applications/Xcode.app/Contents/Developer/Toolchains/XcodeDefault.xctoolchain/usr/bin/../include/c++/v1/ios:734:12
Ltmp104:
	leaq	-56(%rbp), %rdi
	callq	__ZNSt3__16localeD1Ev
Ltmp105:
	jmp	LBB5_15
Ltmp146:
LBB5_15:                                ## %.noexc1
	.loc	2 743 19                ## /Applications/Xcode.app/Contents/Developer/Toolchains/XcodeDefault.xctoolchain/usr/bin/../include/c++/v1/ios:743:19
	movb	-361(%rbp), %al         ## 1-byte Reload
	movsbl	%al, %ecx
	movq	-336(%rbp), %rdx        ## 8-byte Reload
	movl	%ecx, 144(%rdx)
Ltmp147:
LBB5_16:                                ## %_ZNKSt3__19basic_iosIcNS_11char_traitsIcEEE4fillEv.exit
	.loc	2 744 5                 ## /Applications/Xcode.app/Contents/Developer/Toolchains/XcodeDefault.xctoolchain/usr/bin/../include/c++/v1/ios:744:5
	movq	-336(%rbp), %rax        ## 8-byte Reload
	movl	144(%rax), %ecx
	movb	%cl, %dl
	movb	%dl, -385(%rbp)         ## 1-byte Spill
Ltmp148:
## BB#17:
	.loc	18 743 17               ## /Applications/Xcode.app/Contents/Developer/Toolchains/XcodeDefault.xctoolchain/usr/bin/../include/c++/v1/ostream:743:17
	movq	-264(%rbp), %rdi
Ltmp106:
	movb	-385(%rbp), %al         ## 1-byte Reload
	movsbl	%al, %r9d
	movq	-288(%rbp), %rsi        ## 8-byte Reload
	movq	-312(%rbp), %rdx        ## 8-byte Reload
	movq	-320(%rbp), %rcx        ## 8-byte Reload
	movq	-328(%rbp), %r8         ## 8-byte Reload
	callq	__ZNSt3__116__pad_and_outputIcNS_11char_traitsIcEEEENS_19ostreambuf_iteratorIT_T0_EES6_PKS4_S8_S8_RNS_8ios_baseES4_
Ltmp107:
	movq	%rax, -400(%rbp)        ## 8-byte Spill
	jmp	LBB5_18
LBB5_18:
	leaq	-272(%rbp), %rax
	movq	-400(%rbp), %rcx        ## 8-byte Reload
	movq	%rcx, -272(%rbp)
	movq	%rax, -88(%rbp)
	movq	-88(%rbp), %rax
	cmpq	$0, (%rax)
	jne	LBB5_25
## BB#19:
	.loc	18 751 17               ## /Applications/Xcode.app/Contents/Developer/Toolchains/XcodeDefault.xctoolchain/usr/bin/../include/c++/v1/ostream:751:17
	movq	-208(%rbp), %rax
	movq	(%rax), %rcx
	movq	-24(%rcx), %rcx
	addq	%rcx, %rax
	movq	%rax, -120(%rbp)
	movl	$5, -124(%rbp)
	movq	-120(%rbp), %rax
	.loc	2 589 59                ## /Applications/Xcode.app/Contents/Developer/Toolchains/XcodeDefault.xctoolchain/usr/bin/../include/c++/v1/ios:589:59
Ltmp149:
	movq	%rax, -104(%rbp)
	movl	$5, -108(%rbp)
	movq	-104(%rbp), %rax
	.loc	2 524 5                 ## /Applications/Xcode.app/Contents/Developer/Toolchains/XcodeDefault.xctoolchain/usr/bin/../include/c++/v1/ios:524:5
Ltmp150:
	movl	32(%rax), %edx
	orl	$5, %edx
Ltmp108:
	movq	%rax, %rdi
	movl	%edx, %esi
	callq	__ZNSt3__18ios_base5clearEj
Ltmp109:
	jmp	LBB5_20
Ltmp151:
LBB5_20:                                ## %_ZNSt3__19basic_iosIcNS_11char_traitsIcEEE8setstateEj.exit
	.loc	2 589 87                ## /Applications/Xcode.app/Contents/Developer/Toolchains/XcodeDefault.xctoolchain/usr/bin/../include/c++/v1/ios:589:87
	jmp	LBB5_21
Ltmp152:
LBB5_21:
	.loc	18 751 17               ## /Applications/Xcode.app/Contents/Developer/Toolchains/XcodeDefault.xctoolchain/usr/bin/../include/c++/v1/ostream:751:17
	jmp	LBB5_25
Ltmp153:
LBB5_22:
Ltmp115:
	.loc	18 761 1                ## /Applications/Xcode.app/Contents/Developer/Toolchains/XcodeDefault.xctoolchain/usr/bin/../include/c++/v1/ostream:761:1
	movl	%edx, %ecx
	movq	%rax, -248(%rbp)
	movl	%ecx, -252(%rbp)
	jmp	LBB5_29
LBB5_23:
Ltmp110:
	.loc	18 761 1                ## /Applications/Xcode.app/Contents/Developer/Toolchains/XcodeDefault.xctoolchain/usr/bin/../include/c++/v1/ostream:761:1
Ltmp154:
	movl	%edx, %ecx
	movq	%rax, -376(%rbp)        ## 8-byte Spill
	movl	%ecx, -380(%rbp)        ## 4-byte Spill
	jmp	LBB5_24
LBB5_24:                                ## %.body
	movl	-380(%rbp), %eax        ## 4-byte Reload
	movq	-376(%rbp), %rcx        ## 8-byte Reload
	movq	%rcx, -248(%rbp)
	movl	%eax, -252(%rbp)
Ltmp155:
	.loc	18 761 1                ## /Applications/Xcode.app/Contents/Developer/Toolchains/XcodeDefault.xctoolchain/usr/bin/../include/c++/v1/ostream:761:1
Ltmp111:
	leaq	-240(%rbp), %rdi
	callq	__ZNSt3__113basic_ostreamIcNS_11char_traitsIcEEE6sentryD1Ev
Ltmp112:
	jmp	LBB5_28
LBB5_25:
	.loc	18 752 9                ## /Applications/Xcode.app/Contents/Developer/Toolchains/XcodeDefault.xctoolchain/usr/bin/../include/c++/v1/ostream:752:9
Ltmp156:
	jmp	LBB5_26
Ltmp157:
LBB5_26:
	.loc	18 754 5                ## /Applications/Xcode.app/Contents/Developer/Toolchains/XcodeDefault.xctoolchain/usr/bin/../include/c++/v1/ostream:754:5
Ltmp113:
	leaq	-240(%rbp), %rdi
	callq	__ZNSt3__113basic_ostreamIcNS_11char_traitsIcEEE6sentryD1Ev
Ltmp114:
	jmp	LBB5_27
Ltmp158:
LBB5_27:
	.loc	18 754 5                ## /Applications/Xcode.app/Contents/Developer/Toolchains/XcodeDefault.xctoolchain/usr/bin/../include/c++/v1/ostream:754:5
	jmp	LBB5_31
LBB5_28:
	.loc	18 761 1                ## /Applications/Xcode.app/Contents/Developer/Toolchains/XcodeDefault.xctoolchain/usr/bin/../include/c++/v1/ostream:761:1
	jmp	LBB5_29
LBB5_29:
	.loc	18 754 5                ## /Applications/Xcode.app/Contents/Developer/Toolchains/XcodeDefault.xctoolchain/usr/bin/../include/c++/v1/ostream:754:5
	movq	-248(%rbp), %rdi
	callq	___cxa_begin_catch
	.loc	18 757 9                ## /Applications/Xcode.app/Contents/Developer/Toolchains/XcodeDefault.xctoolchain/usr/bin/../include/c++/v1/ostream:757:9
Ltmp159:
	movq	-208(%rbp), %rdi
	movq	(%rdi), %rcx
	movq	-24(%rcx), %rcx
	addq	%rcx, %rdi
Ltmp116:
	movq	%rax, -408(%rbp)        ## 8-byte Spill
	callq	__ZNSt3__18ios_base33__set_badbit_and_consider_rethrowEv
Ltmp117:
	jmp	LBB5_30
LBB5_30:
	.loc	18 758 5                ## /Applications/Xcode.app/Contents/Developer/Toolchains/XcodeDefault.xctoolchain/usr/bin/../include/c++/v1/ostream:758:5
	callq	___cxa_end_catch
Ltmp160:
LBB5_31:
	.loc	18 760 5                ## /Applications/Xcode.app/Contents/Developer/Toolchains/XcodeDefault.xctoolchain/usr/bin/../include/c++/v1/ostream:760:5
	movq	-208(%rbp), %rax
	addq	$416, %rsp              ## imm = 0x1A0
	popq	%rbp
	retq
LBB5_32:
Ltmp118:
	.loc	18 761 1                ## /Applications/Xcode.app/Contents/Developer/Toolchains/XcodeDefault.xctoolchain/usr/bin/../include/c++/v1/ostream:761:1
Ltmp161:
	movl	%edx, %ecx
	movq	%rax, -248(%rbp)
	movl	%ecx, -252(%rbp)
Ltmp162:
	.loc	18 761 1                ## /Applications/Xcode.app/Contents/Developer/Toolchains/XcodeDefault.xctoolchain/usr/bin/../include/c++/v1/ostream:761:1
Ltmp119:
	callq	___cxa_end_catch
Ltmp120:
	jmp	LBB5_33
LBB5_33:
	jmp	LBB5_34
LBB5_34:
	movq	-248(%rbp), %rdi
	callq	__Unwind_Resume
LBB5_35:
Ltmp121:
	movl	%edx, %ecx
	movq	%rax, %rdi
	movl	%ecx, -412(%rbp)        ## 4-byte Spill
	callq	___clang_call_terminate
Ltmp163:
Lfunc_end5:
	.cfi_endproc
Leh_func_end5:
	.section	__TEXT,__gcc_except_tab
	.align	2
GCC_except_table5:
Lexception5:
	.byte	255                     ## @LPStart Encoding = omit
	.byte	155                     ## @TType Encoding = indirect pcrel sdata4
	.asciz	"\253\201"              ## @TType base offset
	.byte	3                       ## Call site Encoding = udata4
	.ascii	"\234\001"              ## Call site table length
Lset55 = Ltmp92-Leh_func_begin5         ## >> Call Site 1 <<
	.long	Lset55
Lset56 = Ltmp93-Ltmp92                  ##   Call between Ltmp92 and Ltmp93
	.long	Lset56
Lset57 = Ltmp115-Leh_func_begin5        ##     jumps to Ltmp115
	.long	Lset57
	.byte	5                       ##   On action: 3
Lset58 = Ltmp94-Leh_func_begin5         ## >> Call Site 2 <<
	.long	Lset58
Lset59 = Ltmp95-Ltmp94                  ##   Call between Ltmp94 and Ltmp95
	.long	Lset59
Lset60 = Ltmp110-Leh_func_begin5        ##     jumps to Ltmp110
	.long	Lset60
	.byte	5                       ##   On action: 3
Lset61 = Ltmp96-Leh_func_begin5         ## >> Call Site 3 <<
	.long	Lset61
Lset62 = Ltmp99-Ltmp96                  ##   Call between Ltmp96 and Ltmp99
	.long	Lset62
Lset63 = Ltmp100-Leh_func_begin5        ##     jumps to Ltmp100
	.long	Lset63
	.byte	3                       ##   On action: 2
Lset64 = Ltmp101-Leh_func_begin5        ## >> Call Site 4 <<
	.long	Lset64
Lset65 = Ltmp102-Ltmp101                ##   Call between Ltmp101 and Ltmp102
	.long	Lset65
Lset66 = Ltmp103-Leh_func_begin5        ##     jumps to Ltmp103
	.long	Lset66
	.byte	7                       ##   On action: 4
Lset67 = Ltmp104-Leh_func_begin5        ## >> Call Site 5 <<
	.long	Lset67
Lset68 = Ltmp109-Ltmp104                ##   Call between Ltmp104 and Ltmp109
	.long	Lset68
Lset69 = Ltmp110-Leh_func_begin5        ##     jumps to Ltmp110
	.long	Lset69
	.byte	5                       ##   On action: 3
Lset70 = Ltmp111-Leh_func_begin5        ## >> Call Site 6 <<
	.long	Lset70
Lset71 = Ltmp112-Ltmp111                ##   Call between Ltmp111 and Ltmp112
	.long	Lset71
Lset72 = Ltmp121-Leh_func_begin5        ##     jumps to Ltmp121
	.long	Lset72
	.byte	5                       ##   On action: 3
Lset73 = Ltmp113-Leh_func_begin5        ## >> Call Site 7 <<
	.long	Lset73
Lset74 = Ltmp114-Ltmp113                ##   Call between Ltmp113 and Ltmp114
	.long	Lset74
Lset75 = Ltmp115-Leh_func_begin5        ##     jumps to Ltmp115
	.long	Lset75
	.byte	5                       ##   On action: 3
Lset76 = Ltmp114-Leh_func_begin5        ## >> Call Site 8 <<
	.long	Lset76
Lset77 = Ltmp116-Ltmp114                ##   Call between Ltmp114 and Ltmp116
	.long	Lset77
	.long	0                       ##     has no landing pad
	.byte	0                       ##   On action: cleanup
Lset78 = Ltmp116-Leh_func_begin5        ## >> Call Site 9 <<
	.long	Lset78
Lset79 = Ltmp117-Ltmp116                ##   Call between Ltmp116 and Ltmp117
	.long	Lset79
Lset80 = Ltmp118-Leh_func_begin5        ##     jumps to Ltmp118
	.long	Lset80
	.byte	0                       ##   On action: cleanup
Lset81 = Ltmp117-Leh_func_begin5        ## >> Call Site 10 <<
	.long	Lset81
Lset82 = Ltmp119-Ltmp117                ##   Call between Ltmp117 and Ltmp119
	.long	Lset82
	.long	0                       ##     has no landing pad
	.byte	0                       ##   On action: cleanup
Lset83 = Ltmp119-Leh_func_begin5        ## >> Call Site 11 <<
	.long	Lset83
Lset84 = Ltmp120-Ltmp119                ##   Call between Ltmp119 and Ltmp120
	.long	Lset84
Lset85 = Ltmp121-Leh_func_begin5        ##     jumps to Ltmp121
	.long	Lset85
	.byte	5                       ##   On action: 3
Lset86 = Ltmp120-Leh_func_begin5        ## >> Call Site 12 <<
	.long	Lset86
Lset87 = Leh_func_end5-Ltmp120          ##   Call between Ltmp120 and Leh_func_end5
	.long	Lset87
	.long	0                       ##     has no landing pad
	.byte	0                       ##   On action: cleanup
	.byte	0                       ## >> Action Record 1 <<
                                        ##   Cleanup
	.byte	0                       ##   No further actions
	.byte	1                       ## >> Action Record 2 <<
                                        ##   Catch TypeInfo 1
	.byte	125                     ##   Continue to action 1
	.byte	1                       ## >> Action Record 3 <<
                                        ##   Catch TypeInfo 1
	.byte	0                       ##   No further actions
	.byte	1                       ## >> Action Record 4 <<
                                        ##   Catch TypeInfo 1
	.byte	125                     ##   Continue to action 3
                                        ## >> Catch TypeInfos <<
	.long	0                       ## TypeInfo 1
	.align	2

	.section	__TEXT,__textcoal_nt,coalesced,pure_instructions
	.private_extern	__ZNSt3__116__pad_and_outputIcNS_11char_traitsIcEEEENS_19ostreambuf_iteratorIT_T0_EES6_PKS4_S8_S8_RNS_8ios_baseES4_
	.globl	__ZNSt3__116__pad_and_outputIcNS_11char_traitsIcEEEENS_19ostreambuf_iteratorIT_T0_EES6_PKS4_S8_S8_RNS_8ios_baseES4_
	.weak_def_can_be_hidden	__ZNSt3__116__pad_and_outputIcNS_11char_traitsIcEEEENS_19ostreambuf_iteratorIT_T0_EES6_PKS4_S8_S8_RNS_8ios_baseES4_
	.align	4, 0x90
__ZNSt3__116__pad_and_outputIcNS_11char_traitsIcEEEENS_19ostreambuf_iteratorIT_T0_EES6_PKS4_S8_S8_RNS_8ios_baseES4_: ## @_ZNSt3__116__pad_and_outputIcNS_11char_traitsIcEEEENS_19ostreambuf_iteratorIT_T0_EES6_PKS4_S8_S8_RNS_8ios_baseES4_
Lfunc_begin6:
	.file	42 "/Applications/Xcode.app/Contents/Developer/Toolchains/XcodeDefault.xctoolchain/usr/bin/../include/c++/v1" "locale"
	.loc	42 1479 0               ## /Applications/Xcode.app/Contents/Developer/Toolchains/XcodeDefault.xctoolchain/usr/bin/../include/c++/v1/locale:1479:0
	.cfi_startproc
	.cfi_personality 155, ___gxx_personality_v0
Leh_func_begin6:
	.cfi_lsda 16, Lexception6
## BB#0:
	pushq	%rbp
Ltmp170:
	.cfi_def_cfa_offset 16
Ltmp171:
	.cfi_offset %rbp, -16
	movq	%rsp, %rbp
Ltmp172:
	.cfi_def_cfa_register %rbp
	subq	$720, %rsp              ## imm = 0x2D0
	movb	%r9b, %al
	leaq	-552(%rbp), %r10
	leaq	-488(%rbp), %r11
	movq	%rdi, -504(%rbp)
	movq	%rsi, -512(%rbp)
	movq	%rdx, -520(%rbp)
	movq	%rcx, -528(%rbp)
	movq	%r8, -536(%rbp)
	movb	%al, -537(%rbp)
	.loc	42 1480 9 prologue_end  ## /Applications/Xcode.app/Contents/Developer/Toolchains/XcodeDefault.xctoolchain/usr/bin/../include/c++/v1/locale:1480:9
Ltmp173:
	movq	-504(%rbp), %rcx
	.loc	20 85 77                ## /Applications/Xcode.app/Contents/Developer/Toolchains/XcodeDefault.xctoolchain/usr/bin/../include/c++/v1/cstddef:85:77
Ltmp174:
	movq	%r11, -472(%rbp)
	movq	$-1, -480(%rbp)
	movq	-472(%rbp), %rdx
	.loc	20 65 80                ## /Applications/Xcode.app/Contents/Developer/Toolchains/XcodeDefault.xctoolchain/usr/bin/../include/c++/v1/cstddef:65:80
Ltmp175:
	movq	-480(%rbp), %rsi
	movq	%rdx, -456(%rbp)
	movq	%rsi, -464(%rbp)
	movq	-456(%rbp), %rdx
	.loc	20 65 79                ## /Applications/Xcode.app/Contents/Developer/Toolchains/XcodeDefault.xctoolchain/usr/bin/../include/c++/v1/cstddef:65:79
Ltmp176:
	movq	$0, (%rdx)
Ltmp177:
	.loc	20 85 77                ## /Applications/Xcode.app/Contents/Developer/Toolchains/XcodeDefault.xctoolchain/usr/bin/../include/c++/v1/cstddef:85:77
	movq	-488(%rbp), %rdx
Ltmp178:
	.loc	42 1480 24              ## /Applications/Xcode.app/Contents/Developer/Toolchains/XcodeDefault.xctoolchain/usr/bin/../include/c++/v1/locale:1480:24
	movq	%rdx, -552(%rbp)
	movq	%r10, -448(%rbp)
	cmpq	$0, %rcx
	jne	LBB6_2
## BB#1:
	.loc	42 1481 9               ## /Applications/Xcode.app/Contents/Developer/Toolchains/XcodeDefault.xctoolchain/usr/bin/../include/c++/v1/locale:1481:9
	movq	-504(%rbp), %rax
	movq	%rax, -496(%rbp)
	jmp	LBB6_29
Ltmp179:
LBB6_2:
	.loc	42 1482 5               ## /Applications/Xcode.app/Contents/Developer/Toolchains/XcodeDefault.xctoolchain/usr/bin/../include/c++/v1/locale:1482:5
	movq	-528(%rbp), %rax
	movq	-512(%rbp), %rcx
	subq	%rcx, %rax
	movq	%rax, -560(%rbp)
	.loc	42 1483 23              ## /Applications/Xcode.app/Contents/Developer/Toolchains/XcodeDefault.xctoolchain/usr/bin/../include/c++/v1/locale:1483:23
	movq	-536(%rbp), %rax
	movq	%rax, -344(%rbp)
	movq	-344(%rbp), %rax
	.loc	2 499 5                 ## /Applications/Xcode.app/Contents/Developer/Toolchains/XcodeDefault.xctoolchain/usr/bin/../include/c++/v1/ios:499:5
Ltmp180:
	movq	24(%rax), %rax
Ltmp181:
	.loc	42 1483 23              ## /Applications/Xcode.app/Contents/Developer/Toolchains/XcodeDefault.xctoolchain/usr/bin/../include/c++/v1/locale:1483:23
	movq	%rax, -568(%rbp)
	.loc	42 1484 9               ## /Applications/Xcode.app/Contents/Developer/Toolchains/XcodeDefault.xctoolchain/usr/bin/../include/c++/v1/locale:1484:9
Ltmp182:
	movq	-568(%rbp), %rax
	cmpq	-560(%rbp), %rax
	jle	LBB6_4
## BB#3:
	.loc	42 1485 9               ## /Applications/Xcode.app/Contents/Developer/Toolchains/XcodeDefault.xctoolchain/usr/bin/../include/c++/v1/locale:1485:9
	movq	-560(%rbp), %rax
	movq	-568(%rbp), %rcx
	subq	%rax, %rcx
	movq	%rcx, -568(%rbp)
	jmp	LBB6_5
LBB6_4:
	.loc	42 1487 9               ## /Applications/Xcode.app/Contents/Developer/Toolchains/XcodeDefault.xctoolchain/usr/bin/../include/c++/v1/locale:1487:9
	movq	$0, -568(%rbp)
Ltmp183:
LBB6_5:
	.loc	42 1488 5               ## /Applications/Xcode.app/Contents/Developer/Toolchains/XcodeDefault.xctoolchain/usr/bin/../include/c++/v1/locale:1488:5
	movq	-520(%rbp), %rax
	movq	-512(%rbp), %rcx
	subq	%rcx, %rax
	movq	%rax, -576(%rbp)
	.loc	42 1489 9               ## /Applications/Xcode.app/Contents/Developer/Toolchains/XcodeDefault.xctoolchain/usr/bin/../include/c++/v1/locale:1489:9
Ltmp184:
	cmpq	$0, -576(%rbp)
	jle	LBB6_9
## BB#6:
	.loc	42 1491 13              ## /Applications/Xcode.app/Contents/Developer/Toolchains/XcodeDefault.xctoolchain/usr/bin/../include/c++/v1/locale:1491:13
Ltmp185:
	movq	-504(%rbp), %rax
	movq	-512(%rbp), %rcx
	movq	-576(%rbp), %rdx
	movq	%rax, -248(%rbp)
	movq	%rcx, -256(%rbp)
	movq	%rdx, -264(%rbp)
	movq	-248(%rbp), %rax
	.loc	17 360 12               ## /Applications/Xcode.app/Contents/Developer/Toolchains/XcodeDefault.xctoolchain/usr/bin/../include/c++/v1/streambuf:360:12
Ltmp186:
	movq	(%rax), %rcx
	movq	96(%rcx), %rcx
	movq	-256(%rbp), %rsi
	movq	-264(%rbp), %rdx
	movq	%rax, %rdi
	callq	*%rcx
Ltmp187:
	.loc	42 1491 13              ## /Applications/Xcode.app/Contents/Developer/Toolchains/XcodeDefault.xctoolchain/usr/bin/../include/c++/v1/locale:1491:13
	cmpq	-576(%rbp), %rax
	je	LBB6_8
## BB#7:
	leaq	-584(%rbp), %rax
	leaq	-240(%rbp), %rcx
	.loc	20 85 77                ## /Applications/Xcode.app/Contents/Developer/Toolchains/XcodeDefault.xctoolchain/usr/bin/../include/c++/v1/cstddef:85:77
Ltmp188:
	movq	%rcx, -224(%rbp)
	movq	$-1, -232(%rbp)
	movq	-224(%rbp), %rcx
	.loc	20 65 80                ## /Applications/Xcode.app/Contents/Developer/Toolchains/XcodeDefault.xctoolchain/usr/bin/../include/c++/v1/cstddef:65:80
Ltmp189:
	movq	-232(%rbp), %rdx
	movq	%rcx, -208(%rbp)
	movq	%rdx, -216(%rbp)
	movq	-208(%rbp), %rcx
	.loc	20 65 79                ## /Applications/Xcode.app/Contents/Developer/Toolchains/XcodeDefault.xctoolchain/usr/bin/../include/c++/v1/cstddef:65:79
Ltmp190:
	movq	$0, (%rcx)
Ltmp191:
	.loc	20 85 77                ## /Applications/Xcode.app/Contents/Developer/Toolchains/XcodeDefault.xctoolchain/usr/bin/../include/c++/v1/cstddef:85:77
	movq	-240(%rbp), %rcx
Ltmp192:
	.loc	42 1493 27              ## /Applications/Xcode.app/Contents/Developer/Toolchains/XcodeDefault.xctoolchain/usr/bin/../include/c++/v1/locale:1493:27
	movq	%rcx, -584(%rbp)
	movq	%rax, -8(%rbp)
	movq	$0, -504(%rbp)
	.loc	42 1494 13              ## /Applications/Xcode.app/Contents/Developer/Toolchains/XcodeDefault.xctoolchain/usr/bin/../include/c++/v1/locale:1494:13
	movq	-504(%rbp), %rax
	movq	%rax, -496(%rbp)
	jmp	LBB6_29
Ltmp193:
LBB6_8:
	.loc	42 1496 5               ## /Applications/Xcode.app/Contents/Developer/Toolchains/XcodeDefault.xctoolchain/usr/bin/../include/c++/v1/locale:1496:5
	jmp	LBB6_9
Ltmp194:
LBB6_9:
	.loc	42 1497 9               ## /Applications/Xcode.app/Contents/Developer/Toolchains/XcodeDefault.xctoolchain/usr/bin/../include/c++/v1/locale:1497:9
	cmpq	$0, -568(%rbp)
	jle	LBB6_24
## BB#10:
	leaq	-608(%rbp), %rax
Ltmp195:
	##DEBUG_VALUE: __sp <- RAX
	.loc	42 1499 9               ## /Applications/Xcode.app/Contents/Developer/Toolchains/XcodeDefault.xctoolchain/usr/bin/../include/c++/v1/locale:1499:9
	movq	-568(%rbp), %rcx
	.loc	42 1499 39              ## /Applications/Xcode.app/Contents/Developer/Toolchains/XcodeDefault.xctoolchain/usr/bin/../include/c++/v1/locale:1499:39
	movb	-537(%rbp), %dl
	movq	%rax, -72(%rbp)
	movq	%rcx, -80(%rbp)
	movb	%dl, -81(%rbp)
	movq	-72(%rbp), %rax
Ltmp196:
	.loc	5 2189 1                ## /Applications/Xcode.app/Contents/Developer/Toolchains/XcodeDefault.xctoolchain/usr/bin/../include/c++/v1/string:2189:1
	movq	-80(%rbp), %rcx
	movb	-81(%rbp), %dl
	movq	%rax, -48(%rbp)
	movq	%rcx, -56(%rbp)
	movb	%dl, -57(%rbp)
	movq	-48(%rbp), %rax
	.loc	5 2184 1                ## /Applications/Xcode.app/Contents/Developer/Toolchains/XcodeDefault.xctoolchain/usr/bin/../include/c++/v1/string:2184:1
Ltmp197:
	movq	%rax, -40(%rbp)
	movq	-40(%rbp), %rcx
	.loc	6 2315 52               ## /Applications/Xcode.app/Contents/Developer/Toolchains/XcodeDefault.xctoolchain/usr/bin/../include/c++/v1/memory:2315:52
Ltmp198:
	movq	%rcx, -32(%rbp)
	movq	-32(%rbp), %rcx
	.loc	6 2315 51               ## /Applications/Xcode.app/Contents/Developer/Toolchains/XcodeDefault.xctoolchain/usr/bin/../include/c++/v1/memory:2315:51
Ltmp199:
	movq	%rcx, -24(%rbp)
	movq	-24(%rbp), %rcx
	.loc	6 2136 62               ## /Applications/Xcode.app/Contents/Developer/Toolchains/XcodeDefault.xctoolchain/usr/bin/../include/c++/v1/memory:2136:62
Ltmp200:
	movq	%rcx, -16(%rbp)
Ltmp201:
	.loc	5 2185 5                ## /Applications/Xcode.app/Contents/Developer/Toolchains/XcodeDefault.xctoolchain/usr/bin/../include/c++/v1/string:2185:5
	movq	-56(%rbp), %rsi
	movq	%rax, %rdi
	movsbl	-57(%rbp), %edx
	callq	__ZNSt3__112basic_stringIcNS_11char_traitsIcEENS_9allocatorIcEEE6__initEmc
	leaq	-608(%rbp), %rax
Ltmp202:
	.loc	42 1500 13              ## /Applications/Xcode.app/Contents/Developer/Toolchains/XcodeDefault.xctoolchain/usr/bin/../include/c++/v1/locale:1500:13
	movq	-504(%rbp), %rcx
	.loc	42 1500 32              ## /Applications/Xcode.app/Contents/Developer/Toolchains/XcodeDefault.xctoolchain/usr/bin/../include/c++/v1/locale:1500:32
	movq	%rax, -200(%rbp)
	movq	-200(%rbp), %rax
	.loc	5 1652 79               ## /Applications/Xcode.app/Contents/Developer/Toolchains/XcodeDefault.xctoolchain/usr/bin/../include/c++/v1/string:1652:79
Ltmp203:
	movq	%rax, -192(%rbp)
	movq	-192(%rbp), %rax
	.loc	5 1810 17               ## /Applications/Xcode.app/Contents/Developer/Toolchains/XcodeDefault.xctoolchain/usr/bin/../include/c++/v1/string:1810:17
Ltmp204:
	movq	%rax, -184(%rbp)
	movq	-184(%rbp), %rsi
	.loc	5 1716 22               ## /Applications/Xcode.app/Contents/Developer/Toolchains/XcodeDefault.xctoolchain/usr/bin/../include/c++/v1/string:1716:22
Ltmp205:
	movq	%rsi, -176(%rbp)
	movq	-176(%rbp), %rsi
	.loc	6 2371 83               ## /Applications/Xcode.app/Contents/Developer/Toolchains/XcodeDefault.xctoolchain/usr/bin/../include/c++/v1/memory:2371:83
Ltmp206:
	movq	%rsi, -168(%rbp)
	movq	-168(%rbp), %rsi
Ltmp207:
	.loc	5 1716 22               ## /Applications/Xcode.app/Contents/Developer/Toolchains/XcodeDefault.xctoolchain/usr/bin/../include/c++/v1/string:1716:22
	movzbl	(%rsi), %edx
	andl	$1, %edx
Ltmp208:
	.loc	5 1810 17               ## /Applications/Xcode.app/Contents/Developer/Toolchains/XcodeDefault.xctoolchain/usr/bin/../include/c++/v1/string:1810:17
	cmpl	$0, %edx
	movq	%rcx, -656(%rbp)        ## 8-byte Spill
	movq	%rax, -664(%rbp)        ## 8-byte Spill
	je	LBB6_12
## BB#11:
	.loc	5 1810 31               ## /Applications/Xcode.app/Contents/Developer/Toolchains/XcodeDefault.xctoolchain/usr/bin/../include/c++/v1/string:1810:31
	movq	-664(%rbp), %rax        ## 8-byte Reload
	movq	%rax, -120(%rbp)
	movq	-120(%rbp), %rcx
	.loc	5 1798 17               ## /Applications/Xcode.app/Contents/Developer/Toolchains/XcodeDefault.xctoolchain/usr/bin/../include/c++/v1/string:1798:17
Ltmp209:
	movq	%rcx, -112(%rbp)
	movq	-112(%rbp), %rcx
	.loc	6 2371 83               ## /Applications/Xcode.app/Contents/Developer/Toolchains/XcodeDefault.xctoolchain/usr/bin/../include/c++/v1/memory:2371:83
Ltmp210:
	movq	%rcx, -104(%rbp)
	movq	-104(%rbp), %rcx
Ltmp211:
	.loc	5 1798 17               ## /Applications/Xcode.app/Contents/Developer/Toolchains/XcodeDefault.xctoolchain/usr/bin/../include/c++/v1/string:1798:17
	movq	16(%rcx), %rcx
Ltmp212:
	.loc	5 1810 31               ## /Applications/Xcode.app/Contents/Developer/Toolchains/XcodeDefault.xctoolchain/usr/bin/../include/c++/v1/string:1810:31
	movq	%rcx, -672(%rbp)        ## 8-byte Spill
	jmp	LBB6_13
LBB6_12:
	.loc	5 1810 54               ## /Applications/Xcode.app/Contents/Developer/Toolchains/XcodeDefault.xctoolchain/usr/bin/../include/c++/v1/string:1810:54
	movq	-664(%rbp), %rax        ## 8-byte Reload
	movq	%rax, -160(%rbp)
	movq	-160(%rbp), %rcx
	.loc	5 1804 59               ## /Applications/Xcode.app/Contents/Developer/Toolchains/XcodeDefault.xctoolchain/usr/bin/../include/c++/v1/string:1804:59
Ltmp213:
	movq	%rcx, -152(%rbp)
	movq	-152(%rbp), %rcx
	.loc	6 2371 83               ## /Applications/Xcode.app/Contents/Developer/Toolchains/XcodeDefault.xctoolchain/usr/bin/../include/c++/v1/memory:2371:83
Ltmp214:
	movq	%rcx, -144(%rbp)
	movq	-144(%rbp), %rcx
Ltmp215:
	.loc	5 1804 59               ## /Applications/Xcode.app/Contents/Developer/Toolchains/XcodeDefault.xctoolchain/usr/bin/../include/c++/v1/string:1804:59
	addq	$1, %rcx
	.loc	5 1804 17               ## /Applications/Xcode.app/Contents/Developer/Toolchains/XcodeDefault.xctoolchain/usr/bin/../include/c++/v1/string:1804:17
	movq	%rcx, -136(%rbp)
	.loc	6 917 17                ## /Applications/Xcode.app/Contents/Developer/Toolchains/XcodeDefault.xctoolchain/usr/bin/../include/c++/v1/memory:917:17
Ltmp216:
	movq	-136(%rbp), %rcx
	movq	%rcx, -128(%rbp)
	.file	43 "/Applications/Xcode.app/Contents/Developer/Toolchains/XcodeDefault.xctoolchain/usr/bin/../include/c++/v1" "__functional_base"
	.loc	43 85 5                 ## /Applications/Xcode.app/Contents/Developer/Toolchains/XcodeDefault.xctoolchain/usr/bin/../include/c++/v1/__functional_base:85:5
Ltmp217:
	movq	-128(%rbp), %rcx
	movq	%rcx, -672(%rbp)        ## 8-byte Spill
Ltmp218:
LBB6_13:                                ## %_ZNKSt3__112basic_stringIcNS_11char_traitsIcEENS_9allocatorIcEEE4dataEv.exit
	.loc	5 1810 54               ## /Applications/Xcode.app/Contents/Developer/Toolchains/XcodeDefault.xctoolchain/usr/bin/../include/c++/v1/string:1810:54
	movq	-672(%rbp), %rax        ## 8-byte Reload
Ltmp219:
	.loc	5 1652 55               ## /Applications/Xcode.app/Contents/Developer/Toolchains/XcodeDefault.xctoolchain/usr/bin/../include/c++/v1/string:1652:55
	movq	%rax, -96(%rbp)
Ltmp220:
	.loc	42 1500 13              ## /Applications/Xcode.app/Contents/Developer/Toolchains/XcodeDefault.xctoolchain/usr/bin/../include/c++/v1/locale:1500:13
	movq	-568(%rbp), %rcx
	movq	-656(%rbp), %rdx        ## 8-byte Reload
	movq	%rdx, -272(%rbp)
	movq	%rax, -280(%rbp)
	movq	%rcx, -288(%rbp)
	movq	-272(%rbp), %rax
	.loc	17 360 12               ## /Applications/Xcode.app/Contents/Developer/Toolchains/XcodeDefault.xctoolchain/usr/bin/../include/c++/v1/streambuf:360:12
Ltmp221:
	movq	(%rax), %rsi
	movq	96(%rsi), %rsi
	movq	-280(%rbp), %rdi
Ltmp164:
	movq	%rdi, -680(%rbp)        ## 8-byte Spill
	movq	%rax, %rdi
	movq	-680(%rbp), %rax        ## 8-byte Reload
	movq	%rsi, -688(%rbp)        ## 8-byte Spill
	movq	%rax, %rsi
	movq	%rcx, %rdx
	movq	-688(%rbp), %rcx        ## 8-byte Reload
	callq	*%rcx
Ltmp165:
	movq	%rax, -696(%rbp)        ## 8-byte Spill
	jmp	LBB6_14
LBB6_14:                                ## %_ZNSt3__115basic_streambufIcNS_11char_traitsIcEEE5sputnEPKcl.exit
	jmp	LBB6_15
Ltmp222:
LBB6_15:
	.loc	42 1500 13              ## /Applications/Xcode.app/Contents/Developer/Toolchains/XcodeDefault.xctoolchain/usr/bin/../include/c++/v1/locale:1500:13
	movq	-696(%rbp), %rax        ## 8-byte Reload
	cmpq	-568(%rbp), %rax
	je	LBB6_20
## BB#16:
	leaq	-328(%rbp), %rax
	.loc	20 85 77                ## /Applications/Xcode.app/Contents/Developer/Toolchains/XcodeDefault.xctoolchain/usr/bin/../include/c++/v1/cstddef:85:77
Ltmp223:
	movq	%rax, -312(%rbp)
	movq	$-1, -320(%rbp)
	movq	-312(%rbp), %rax
	.loc	20 65 80                ## /Applications/Xcode.app/Contents/Developer/Toolchains/XcodeDefault.xctoolchain/usr/bin/../include/c++/v1/cstddef:65:80
Ltmp224:
	movq	-320(%rbp), %rcx
	movq	%rax, -296(%rbp)
	movq	%rcx, -304(%rbp)
	movq	-296(%rbp), %rax
	.loc	20 65 79                ## /Applications/Xcode.app/Contents/Developer/Toolchains/XcodeDefault.xctoolchain/usr/bin/../include/c++/v1/cstddef:65:79
Ltmp225:
	movq	$0, (%rax)
Ltmp226:
	.loc	20 85 77                ## /Applications/Xcode.app/Contents/Developer/Toolchains/XcodeDefault.xctoolchain/usr/bin/../include/c++/v1/cstddef:85:77
	movq	-328(%rbp), %rax
	movq	%rax, -704(%rbp)        ## 8-byte Spill
Ltmp227:
## BB#17:
	leaq	-632(%rbp), %rax
	.loc	42 1502 27              ## /Applications/Xcode.app/Contents/Developer/Toolchains/XcodeDefault.xctoolchain/usr/bin/../include/c++/v1/locale:1502:27
	movq	-704(%rbp), %rcx        ## 8-byte Reload
	movq	%rcx, -632(%rbp)
	movq	%rax, -336(%rbp)
## BB#18:
	movq	$0, -504(%rbp)
	.loc	42 1503 13              ## /Applications/Xcode.app/Contents/Developer/Toolchains/XcodeDefault.xctoolchain/usr/bin/../include/c++/v1/locale:1503:13
	movq	-504(%rbp), %rax
	movq	%rax, -496(%rbp)
	movl	$1, -636(%rbp)
	jmp	LBB6_21
Ltmp228:
LBB6_19:
Ltmp166:
	.loc	42 1517 1               ## /Applications/Xcode.app/Contents/Developer/Toolchains/XcodeDefault.xctoolchain/usr/bin/../include/c++/v1/locale:1517:1
	movl	%edx, %ecx
	movq	%rax, -616(%rbp)
	movl	%ecx, -620(%rbp)
Ltmp229:
	.loc	42 1517 1               ## /Applications/Xcode.app/Contents/Developer/Toolchains/XcodeDefault.xctoolchain/usr/bin/../include/c++/v1/locale:1517:1
Ltmp167:
	leaq	-608(%rbp), %rdi
	callq	__ZNSt3__112basic_stringIcNS_11char_traitsIcEENS_9allocatorIcEEED1Ev
Ltmp168:
	jmp	LBB6_23
LBB6_20:
	.loc	42 1505 5               ## /Applications/Xcode.app/Contents/Developer/Toolchains/XcodeDefault.xctoolchain/usr/bin/../include/c++/v1/locale:1505:5
Ltmp230:
	movl	$0, -636(%rbp)
LBB6_21:
	leaq	-608(%rbp), %rdi
	callq	__ZNSt3__112basic_stringIcNS_11char_traitsIcEENS_9allocatorIcEEED1Ev
	movl	-636(%rbp), %eax
	movl	%eax, %ecx
	subl	$1, %ecx
	movl	%eax, -708(%rbp)        ## 4-byte Spill
	movl	%ecx, -712(%rbp)        ## 4-byte Spill
	je	LBB6_29
	jmp	LBB6_33
Ltmp231:
LBB6_33:
	movl	-708(%rbp), %eax        ## 4-byte Reload
	testl	%eax, %eax
	jne	LBB6_32
	jmp	LBB6_22
LBB6_22:
	.loc	42 1505 5               ## /Applications/Xcode.app/Contents/Developer/Toolchains/XcodeDefault.xctoolchain/usr/bin/../include/c++/v1/locale:1505:5
	jmp	LBB6_24
LBB6_23:
	.loc	42 1517 1               ## /Applications/Xcode.app/Contents/Developer/Toolchains/XcodeDefault.xctoolchain/usr/bin/../include/c++/v1/locale:1517:1
	jmp	LBB6_30
Ltmp232:
LBB6_24:
	.loc	42 1506 5               ## /Applications/Xcode.app/Contents/Developer/Toolchains/XcodeDefault.xctoolchain/usr/bin/../include/c++/v1/locale:1506:5
	movq	-528(%rbp), %rax
	movq	-520(%rbp), %rcx
	subq	%rcx, %rax
	movq	%rax, -576(%rbp)
	.loc	42 1507 9               ## /Applications/Xcode.app/Contents/Developer/Toolchains/XcodeDefault.xctoolchain/usr/bin/../include/c++/v1/locale:1507:9
Ltmp233:
	cmpq	$0, -576(%rbp)
	jle	LBB6_28
## BB#25:
	.loc	42 1509 13              ## /Applications/Xcode.app/Contents/Developer/Toolchains/XcodeDefault.xctoolchain/usr/bin/../include/c++/v1/locale:1509:13
Ltmp234:
	movq	-504(%rbp), %rax
	movq	-520(%rbp), %rcx
	movq	-576(%rbp), %rdx
	movq	%rax, -352(%rbp)
	movq	%rcx, -360(%rbp)
	movq	%rdx, -368(%rbp)
	movq	-352(%rbp), %rax
	.loc	17 360 12               ## /Applications/Xcode.app/Contents/Developer/Toolchains/XcodeDefault.xctoolchain/usr/bin/../include/c++/v1/streambuf:360:12
Ltmp235:
	movq	(%rax), %rcx
	movq	96(%rcx), %rcx
	movq	-360(%rbp), %rsi
	movq	-368(%rbp), %rdx
	movq	%rax, %rdi
	callq	*%rcx
Ltmp236:
	.loc	42 1509 13              ## /Applications/Xcode.app/Contents/Developer/Toolchains/XcodeDefault.xctoolchain/usr/bin/../include/c++/v1/locale:1509:13
	cmpq	-576(%rbp), %rax
	je	LBB6_27
## BB#26:
	leaq	-648(%rbp), %rax
	leaq	-408(%rbp), %rcx
	.loc	20 85 77                ## /Applications/Xcode.app/Contents/Developer/Toolchains/XcodeDefault.xctoolchain/usr/bin/../include/c++/v1/cstddef:85:77
Ltmp237:
	movq	%rcx, -392(%rbp)
	movq	$-1, -400(%rbp)
	movq	-392(%rbp), %rcx
	.loc	20 65 80                ## /Applications/Xcode.app/Contents/Developer/Toolchains/XcodeDefault.xctoolchain/usr/bin/../include/c++/v1/cstddef:65:80
Ltmp238:
	movq	-400(%rbp), %rdx
	movq	%rcx, -376(%rbp)
	movq	%rdx, -384(%rbp)
	movq	-376(%rbp), %rcx
	.loc	20 65 79                ## /Applications/Xcode.app/Contents/Developer/Toolchains/XcodeDefault.xctoolchain/usr/bin/../include/c++/v1/cstddef:65:79
Ltmp239:
	movq	$0, (%rcx)
Ltmp240:
	.loc	20 85 77                ## /Applications/Xcode.app/Contents/Developer/Toolchains/XcodeDefault.xctoolchain/usr/bin/../include/c++/v1/cstddef:85:77
	movq	-408(%rbp), %rcx
Ltmp241:
	.loc	42 1511 27              ## /Applications/Xcode.app/Contents/Developer/Toolchains/XcodeDefault.xctoolchain/usr/bin/../include/c++/v1/locale:1511:27
	movq	%rcx, -648(%rbp)
	movq	%rax, -416(%rbp)
	movq	$0, -504(%rbp)
	.loc	42 1512 13              ## /Applications/Xcode.app/Contents/Developer/Toolchains/XcodeDefault.xctoolchain/usr/bin/../include/c++/v1/locale:1512:13
	movq	-504(%rbp), %rax
	movq	%rax, -496(%rbp)
	jmp	LBB6_29
Ltmp242:
LBB6_27:
	.loc	42 1514 5               ## /Applications/Xcode.app/Contents/Developer/Toolchains/XcodeDefault.xctoolchain/usr/bin/../include/c++/v1/locale:1514:5
	jmp	LBB6_28
Ltmp243:
LBB6_28:
	.loc	42 1515 5               ## /Applications/Xcode.app/Contents/Developer/Toolchains/XcodeDefault.xctoolchain/usr/bin/../include/c++/v1/locale:1515:5
	movq	-536(%rbp), %rax
	movq	%rax, -424(%rbp)
	movq	$0, -432(%rbp)
	movq	-424(%rbp), %rax
	.loc	2 506 5                 ## /Applications/Xcode.app/Contents/Developer/Toolchains/XcodeDefault.xctoolchain/usr/bin/../include/c++/v1/ios:506:5
Ltmp244:
	movq	24(%rax), %rcx
	movq	%rcx, -440(%rbp)
	.loc	2 507 5                 ## /Applications/Xcode.app/Contents/Developer/Toolchains/XcodeDefault.xctoolchain/usr/bin/../include/c++/v1/ios:507:5
	movq	-432(%rbp), %rcx
	movq	%rcx, 24(%rax)
Ltmp245:
	.loc	42 1516 5               ## /Applications/Xcode.app/Contents/Developer/Toolchains/XcodeDefault.xctoolchain/usr/bin/../include/c++/v1/locale:1516:5
	movq	-504(%rbp), %rax
	movq	%rax, -496(%rbp)
LBB6_29:
	.loc	42 1517 1               ## /Applications/Xcode.app/Contents/Developer/Toolchains/XcodeDefault.xctoolchain/usr/bin/../include/c++/v1/locale:1517:1
	movq	-496(%rbp), %rax
	addq	$720, %rsp              ## imm = 0x2D0
	popq	%rbp
	retq
LBB6_30:
	.loc	42 1517 1               ## /Applications/Xcode.app/Contents/Developer/Toolchains/XcodeDefault.xctoolchain/usr/bin/../include/c++/v1/locale:1517:1
Ltmp246:
	movq	-616(%rbp), %rdi
	callq	__Unwind_Resume
LBB6_31:
Ltmp169:
	movl	%edx, %ecx
	movq	%rax, %rdi
	movl	%ecx, -716(%rbp)        ## 4-byte Spill
	callq	___clang_call_terminate
Ltmp247:
LBB6_32:
Lfunc_end6:
	.cfi_endproc
Leh_func_end6:
	.section	__TEXT,__gcc_except_tab
	.align	2
GCC_except_table6:
Lexception6:
	.byte	255                     ## @LPStart Encoding = omit
	.byte	155                     ## @TType Encoding = indirect pcrel sdata4
	.asciz	"\274"                  ## @TType base offset
	.byte	3                       ## Call site Encoding = udata4
	.byte	52                      ## Call site table length
Lset88 = Leh_func_begin6-Leh_func_begin6 ## >> Call Site 1 <<
	.long	Lset88
Lset89 = Ltmp164-Leh_func_begin6        ##   Call between Leh_func_begin6 and Ltmp164
	.long	Lset89
	.long	0                       ##     has no landing pad
	.byte	0                       ##   On action: cleanup
Lset90 = Ltmp164-Leh_func_begin6        ## >> Call Site 2 <<
	.long	Lset90
Lset91 = Ltmp165-Ltmp164                ##   Call between Ltmp164 and Ltmp165
	.long	Lset91
Lset92 = Ltmp166-Leh_func_begin6        ##     jumps to Ltmp166
	.long	Lset92
	.byte	0                       ##   On action: cleanup
Lset93 = Ltmp167-Leh_func_begin6        ## >> Call Site 3 <<
	.long	Lset93
Lset94 = Ltmp168-Ltmp167                ##   Call between Ltmp167 and Ltmp168
	.long	Lset94
Lset95 = Ltmp169-Leh_func_begin6        ##     jumps to Ltmp169
	.long	Lset95
	.byte	1                       ##   On action: 1
Lset96 = Ltmp168-Leh_func_begin6        ## >> Call Site 4 <<
	.long	Lset96
Lset97 = Leh_func_end6-Ltmp168          ##   Call between Ltmp168 and Leh_func_end6
	.long	Lset97
	.long	0                       ##     has no landing pad
	.byte	0                       ##   On action: cleanup
	.byte	1                       ## >> Action Record 1 <<
                                        ##   Catch TypeInfo 1
	.byte	0                       ##   No further actions
                                        ## >> Catch TypeInfos <<
	.long	0                       ## TypeInfo 1
	.align	2

	.section	__TEXT,__cstring,cstring_literals
L_.str:                                 ## @.str
	.asciz	"Excpetion: "

L_.str1:                                ## @.str1
	.asciz	"Value less than zero."

	.section	__TEXT,__text,regular,pure_instructions
Ldebug_end0:
	.section	__TEXT,__textcoal_nt,coalesced,pure_instructions
Ldebug_end1: