	.section	__TEXT,__text,regular,pure_instructions
	.section	__TEXT,__text,regular,pure_instructions
	.globl	_main
	.align	4, 0x90
_main:                                  ## @main
Lfunc_begin0:
	.loc	1 8 0                   ## main.cpp:8:0
	.cfi_startproc
	.cfi_personality 155, ___gxx_personality_v0
Leh_func_begin0:
	.cfi_lsda 16, Lexception0
## BB#0:
	pushq	%rbp
Ltmp33:
	.cfi_def_cfa_offset 16
Ltmp34:
	.cfi_offset %rbp, -16
	movq	%rsp, %rbp
Ltmp35:
	.cfi_def_cfa_register %rbp
	subq	$560, %rsp              ## imm = 0x230
	##DEBUG_VALUE: main:argc <- undef
	##DEBUG_VALUE: main:argv <- undef
	movl	$0, -220(%rbp)
	movl	%edi, -224(%rbp)
	movq	%rsi, -232(%rbp)
	movl	$8, %edi
                                        ## kill: RDI<def> EDI<kill>
	.loc	1 9 0 prologue_end      ## main.cpp:9:0
Ltmp36:
	callq	__Znwm
	movq	%rax, %rsi
	movq	%rax, %rdi
Ltmp0:
	movq	%rdi, -368(%rbp)        ## 8-byte Spill
	movq	%rax, %rdi
	movq	%rsi, -376(%rbp)        ## 8-byte Spill
	callq	__ZN10NintendoDSC1Ev
Ltmp1:
	jmp	LBB0_1
LBB0_1:
	movq	-368(%rbp), %rax        ## 8-byte Reload
	movq	%rax, -240(%rbp)
	.loc	1 10 0                  ## main.cpp:10:0
	movq	(%rax), %rcx
	movq	16(%rcx), %rcx
	movq	%rax, %rdi
	callq	*%rcx
	.loc	1 11 0                  ## main.cpp:11:0
	movq	-240(%rbp), %rax
	movq	(%rax), %rcx
	movq	24(%rcx), %rcx
	movq	%rax, %rdi
	callq	*%rcx
Ltmp37:
	##DEBUG_VALUE: main:rotary <- [RBP+-264]
	movl	$8, %edx
	movl	%edx, %edi
	.loc	1 13 0                  ## main.cpp:13:0
	callq	__Znwm
	movq	%rax, %rcx
	movq	%rax, %rdi
Ltmp3:
	movq	%rdi, -384(%rbp)        ## 8-byte Spill
	movq	%rax, %rdi
	movq	%rcx, -392(%rbp)        ## 8-byte Spill
	callq	__ZN11RotaryPhoneC1Ev
Ltmp4:
	jmp	LBB0_2
Ltmp38:
LBB0_2:
	movq	-384(%rbp), %rax        ## 8-byte Reload
	movq	%rax, -264(%rbp)
	.loc	1 14 0                  ## main.cpp:14:0
	movq	(%rax), %rcx
	movq	16(%rcx), %rcx
	leaq	-288(%rbp), %rdx
	movq	%rdx, -208(%rbp)
	leaq	L_.str(%rip), %rsi
	movq	%rsi, -216(%rbp)
	movq	-208(%rbp), %rdi
	movq	%rdi, -192(%rbp)
	movq	%rsi, -200(%rbp)
	movq	-192(%rbp), %rsi
	movq	%rsi, -184(%rbp)
	movq	%rsi, -176(%rbp)
	movq	%rsi, -168(%rbp)
	movq	%rsi, -160(%rbp)
	.loc	3 1968 0                ## /Applications/Xcode.app/Contents/Developer/Toolchains/XcodeDefault.xctoolchain/usr/bin/../include/c++/v1/string:1968:0
Ltmp39:
	movq	-200(%rbp), %rdi
	movq	%rdi, -152(%rbp)
	.loc	3 651 0                 ## /Applications/Xcode.app/Contents/Developer/Toolchains/XcodeDefault.xctoolchain/usr/bin/../include/c++/v1/string:651:0
Ltmp40:
	movq	%rdi, -400(%rbp)        ## 8-byte Spill
	movq	%rcx, -408(%rbp)        ## 8-byte Spill
	movq	%rdx, -416(%rbp)        ## 8-byte Spill
	movq	%rsi, -424(%rbp)        ## 8-byte Spill
	callq	_strlen
Ltmp41:
	.loc	3 1968 0                ## /Applications/Xcode.app/Contents/Developer/Toolchains/XcodeDefault.xctoolchain/usr/bin/../include/c++/v1/string:1968:0
	movq	-424(%rbp), %rdi        ## 8-byte Reload
	movq	-400(%rbp), %rsi        ## 8-byte Reload
	movq	%rax, %rdx
	callq	__ZNSt3__112basic_stringIcNS_11char_traitsIcEENS_9allocatorIcEEE6__initEPKcm
Ltmp42:
	.loc	1 14 0                  ## main.cpp:14:0
Ltmp6:
	movq	-384(%rbp), %rdi        ## 8-byte Reload
	movq	-416(%rbp), %rsi        ## 8-byte Reload
	movq	-408(%rbp), %rax        ## 8-byte Reload
	callq	*%rax
Ltmp7:
	jmp	LBB0_3
LBB0_3:
	leaq	-288(%rbp), %rdi
	callq	__ZNSt3__112basic_stringIcNS_11char_traitsIcEENS_9allocatorIcEEED1Ev
Ltmp43:
	##DEBUG_VALUE: main:cell1 <- [RBP+-296]
	movl	$24, %eax
	movl	%eax, %edi
	.loc	1 16 0                  ## main.cpp:16:0
	callq	__Znwm
	movq	%rax, %rdi
	movq	%rax, %rcx
Ltmp11:
	movq	%rdi, -432(%rbp)        ## 8-byte Spill
	movq	%rax, %rdi
	movq	%rcx, -440(%rbp)        ## 8-byte Spill
	callq	__ZN9CellPhoneC1Ev
Ltmp12:
	jmp	LBB0_4
Ltmp44:
LBB0_4:
	movq	-440(%rbp), %rax        ## 8-byte Reload
	movq	%rax, -296(%rbp)
	.loc	1 17 0                  ## main.cpp:17:0
	movq	(%rax), %rcx
	movq	16(%rcx), %rcx
	leaq	-320(%rbp), %rdx
	movq	%rdx, -136(%rbp)
	leaq	L_.str(%rip), %rsi
	movq	%rsi, -144(%rbp)
	movq	-136(%rbp), %rdi
	movq	%rdi, -120(%rbp)
	movq	%rsi, -128(%rbp)
	movq	-120(%rbp), %rsi
	movq	%rsi, -112(%rbp)
	movq	%rsi, -104(%rbp)
	movq	%rsi, -96(%rbp)
	movq	%rsi, -88(%rbp)
	.loc	3 1968 0                ## /Applications/Xcode.app/Contents/Developer/Toolchains/XcodeDefault.xctoolchain/usr/bin/../include/c++/v1/string:1968:0
Ltmp45:
	movq	-128(%rbp), %rdi
	movq	%rdi, -80(%rbp)
	.loc	3 651 0                 ## /Applications/Xcode.app/Contents/Developer/Toolchains/XcodeDefault.xctoolchain/usr/bin/../include/c++/v1/string:651:0
Ltmp46:
	movq	%rdi, -448(%rbp)        ## 8-byte Spill
	movq	%rcx, -456(%rbp)        ## 8-byte Spill
	movq	%rdx, -464(%rbp)        ## 8-byte Spill
	movq	%rsi, -472(%rbp)        ## 8-byte Spill
	callq	_strlen
Ltmp47:
	.loc	3 1968 0                ## /Applications/Xcode.app/Contents/Developer/Toolchains/XcodeDefault.xctoolchain/usr/bin/../include/c++/v1/string:1968:0
	movq	-472(%rbp), %rdi        ## 8-byte Reload
	movq	-448(%rbp), %rsi        ## 8-byte Reload
	movq	%rax, %rdx
	callq	__ZNSt3__112basic_stringIcNS_11char_traitsIcEENS_9allocatorIcEEE6__initEPKcm
Ltmp48:
	.loc	1 17 0                  ## main.cpp:17:0
Ltmp14:
	movq	-440(%rbp), %rdi        ## 8-byte Reload
	movq	-464(%rbp), %rsi        ## 8-byte Reload
	movq	-456(%rbp), %rax        ## 8-byte Reload
	callq	*%rax
Ltmp15:
	jmp	LBB0_5
LBB0_5:
	leaq	-320(%rbp), %rdi
	callq	__ZNSt3__112basic_stringIcNS_11char_traitsIcEENS_9allocatorIcEEED1Ev
Ltmp49:
	##DEBUG_VALUE: main:cell2 <- [RBP+-328]
	movl	$24, %eax
	movl	%eax, %edi
	.loc	1 19 0                  ## main.cpp:19:0
	callq	__Znwm
	movq	%rax, %rdi
	movq	%rax, %rcx
Ltmp19:
	movq	%rdi, -480(%rbp)        ## 8-byte Spill
	movq	%rax, %rdi
	movq	%rcx, -488(%rbp)        ## 8-byte Spill
	callq	__ZN9CellPhoneC1Ev
Ltmp20:
	jmp	LBB0_6
Ltmp50:
LBB0_6:
	movabsq	$0, %rax
	movq	-488(%rbp), %rcx        ## 8-byte Reload
	cmpq	$0, %rcx
	movq	%rax, -496(%rbp)        ## 8-byte Spill
	je	LBB0_8
## BB#7:
	movq	-488(%rbp), %rax        ## 8-byte Reload
	addq	$8, %rax
	movq	%rax, -496(%rbp)        ## 8-byte Spill
LBB0_8:
	movq	-496(%rbp), %rax        ## 8-byte Reload
	movq	%rax, -328(%rbp)
	.loc	1 20 0                  ## main.cpp:20:0
	movq	(%rax), %rcx
	movq	16(%rcx), %rcx
	movq	%rax, %rdi
	callq	*%rcx
	.loc	1 21 0                  ## main.cpp:21:0
	movq	-328(%rbp), %rax
	movq	(%rax), %rcx
	movq	24(%rcx), %rcx
	movq	%rax, %rdi
	callq	*%rcx
Ltmp51:
	##DEBUG_VALUE: main:cell3 <- [RBP+-336]
	movl	$24, %edx
	movl	%edx, %edi
	.loc	1 23 0                  ## main.cpp:23:0
	callq	__Znwm
	movq	%rax, %rcx
	movq	%rax, %rdi
Ltmp22:
	movq	%rdi, -504(%rbp)        ## 8-byte Spill
	movq	%rax, %rdi
	movq	%rcx, -512(%rbp)        ## 8-byte Spill
	callq	__ZN9CellPhoneC1Ev
Ltmp23:
	jmp	LBB0_9
Ltmp52:
LBB0_9:
	movq	-504(%rbp), %rax        ## 8-byte Reload
	movq	%rax, -336(%rbp)
	.loc	1 24 0                  ## main.cpp:24:0
	movq	(%rax), %rcx
	movq	24(%rcx), %rcx
	movq	%rax, %rdi
	callq	*%rcx
	.loc	1 25 0                  ## main.cpp:25:0
	movq	-336(%rbp), %rax
	movq	(%rax), %rcx
	movq	16(%rcx), %rcx
	leaq	-360(%rbp), %rdi
	movq	%rdi, -64(%rbp)
	leaq	L_.str(%rip), %rdx
	movq	%rdx, -72(%rbp)
	movq	-64(%rbp), %rsi
	movq	%rsi, -48(%rbp)
	movq	%rdx, -56(%rbp)
	movq	-48(%rbp), %rdx
	movq	%rdx, -40(%rbp)
	movq	%rdx, -32(%rbp)
	movq	%rdx, -24(%rbp)
	movq	%rdx, -16(%rbp)
	.loc	3 1968 0                ## /Applications/Xcode.app/Contents/Developer/Toolchains/XcodeDefault.xctoolchain/usr/bin/../include/c++/v1/string:1968:0
Ltmp53:
	movq	-56(%rbp), %rsi
	movq	%rsi, -8(%rbp)
	.loc	3 651 0                 ## /Applications/Xcode.app/Contents/Developer/Toolchains/XcodeDefault.xctoolchain/usr/bin/../include/c++/v1/string:651:0
Ltmp54:
	movq	%rdi, -520(%rbp)        ## 8-byte Spill
	movq	%rsi, %rdi
	movq	%rax, -528(%rbp)        ## 8-byte Spill
	movq	%rcx, -536(%rbp)        ## 8-byte Spill
	movq	%rsi, -544(%rbp)        ## 8-byte Spill
	movq	%rdx, -552(%rbp)        ## 8-byte Spill
	callq	_strlen
Ltmp55:
	.loc	3 1968 0                ## /Applications/Xcode.app/Contents/Developer/Toolchains/XcodeDefault.xctoolchain/usr/bin/../include/c++/v1/string:1968:0
	movq	-552(%rbp), %rdi        ## 8-byte Reload
	movq	-544(%rbp), %rsi        ## 8-byte Reload
	movq	%rax, %rdx
	callq	__ZNSt3__112basic_stringIcNS_11char_traitsIcEENS_9allocatorIcEEE6__initEPKcm
Ltmp56:
	.loc	1 25 0                  ## main.cpp:25:0
Ltmp25:
	movq	-528(%rbp), %rdi        ## 8-byte Reload
	movq	-520(%rbp), %rsi        ## 8-byte Reload
	movq	-536(%rbp), %rax        ## 8-byte Reload
	callq	*%rax
Ltmp26:
	jmp	LBB0_10
LBB0_10:
	leaq	-360(%rbp), %rdi
	callq	__ZNSt3__112basic_stringIcNS_11char_traitsIcEENS_9allocatorIcEEED1Ev
	movl	$0, %eax
	.loc	1 26 0                  ## main.cpp:26:0
	movq	-336(%rbp), %rdi
	movq	(%rdi), %rcx
	movl	%eax, -556(%rbp)        ## 4-byte Spill
	callq	*32(%rcx)
	.loc	1 28 0                  ## main.cpp:28:0
	movl	-556(%rbp), %eax        ## 4-byte Reload
	addq	$560, %rsp              ## imm = 0x230
	popq	%rbp
	retq
LBB0_11:
Ltmp2:
	.loc	1 29 0                  ## main.cpp:29:0
	movl	%edx, %ecx
	movq	%rax, -248(%rbp)
	movl	%ecx, -252(%rbp)
	movq	-376(%rbp), %rdi        ## 8-byte Reload
	callq	__ZdlPv
	jmp	LBB0_22
LBB0_12:
Ltmp5:
	movl	%edx, %ecx
	movq	%rax, -248(%rbp)
	movl	%ecx, -252(%rbp)
	movq	-392(%rbp), %rdi        ## 8-byte Reload
	callq	__ZdlPv
	jmp	LBB0_22
LBB0_13:
Ltmp8:
	movl	%edx, %ecx
	movq	%rax, -248(%rbp)
	movl	%ecx, -252(%rbp)
Ltmp9:
	leaq	-288(%rbp), %rdi
	callq	__ZNSt3__112basic_stringIcNS_11char_traitsIcEENS_9allocatorIcEEED1Ev
Ltmp10:
	jmp	LBB0_14
LBB0_14:
	jmp	LBB0_22
LBB0_15:
Ltmp13:
	movl	%edx, %ecx
	movq	%rax, -248(%rbp)
	movl	%ecx, -252(%rbp)
	movq	-432(%rbp), %rdi        ## 8-byte Reload
	callq	__ZdlPv
	jmp	LBB0_22
LBB0_16:
Ltmp16:
	movl	%edx, %ecx
	movq	%rax, -248(%rbp)
	movl	%ecx, -252(%rbp)
Ltmp17:
	leaq	-320(%rbp), %rdi
	callq	__ZNSt3__112basic_stringIcNS_11char_traitsIcEENS_9allocatorIcEEED1Ev
Ltmp18:
	jmp	LBB0_17
LBB0_17:
	jmp	LBB0_22
LBB0_18:
Ltmp21:
	movl	%edx, %ecx
	movq	%rax, -248(%rbp)
	movl	%ecx, -252(%rbp)
	movq	-480(%rbp), %rdi        ## 8-byte Reload
	callq	__ZdlPv
	jmp	LBB0_22
LBB0_19:
Ltmp24:
	movl	%edx, %ecx
	movq	%rax, -248(%rbp)
	movl	%ecx, -252(%rbp)
	movq	-512(%rbp), %rdi        ## 8-byte Reload
	callq	__ZdlPv
	jmp	LBB0_22
LBB0_20:
Ltmp27:
	movl	%edx, %ecx
	movq	%rax, -248(%rbp)
	movl	%ecx, -252(%rbp)
Ltmp28:
	leaq	-360(%rbp), %rdi
	callq	__ZNSt3__112basic_stringIcNS_11char_traitsIcEENS_9allocatorIcEEED1Ev
Ltmp29:
	jmp	LBB0_21
LBB0_21:
	jmp	LBB0_22
LBB0_22:
	movq	-248(%rbp), %rdi
	callq	__Unwind_Resume
LBB0_23:
Ltmp30:
	movl	%edx, %ecx
	movq	%rax, %rdi
	movl	%ecx, -560(%rbp)        ## 4-byte Spill
	callq	___clang_call_terminate
Ltmp57:
Lfunc_end0:
	.cfi_endproc
Leh_func_end0:
	.section	__TEXT,__gcc_except_tab
	.align	2
GCC_except_table0:
Lexception0:
	.byte	255                     ## @LPStart Encoding = omit
	.byte	155                     ## @TType Encoding = indirect pcrel sdata4
	.ascii	"\200\002"              ## @TType base offset
	.byte	3                       ## Call site Encoding = udata4
	.ascii	"\367\001"              ## Call site table length
Lset0 = Leh_func_begin0-Leh_func_begin0 ## >> Call Site 1 <<
	.long	Lset0
Lset1 = Ltmp0-Leh_func_begin0           ##   Call between Leh_func_begin0 and Ltmp0
	.long	Lset1
	.long	0                       ##     has no landing pad
	.byte	0                       ##   On action: cleanup
Lset2 = Ltmp0-Leh_func_begin0           ## >> Call Site 2 <<
	.long	Lset2
Lset3 = Ltmp1-Ltmp0                     ##   Call between Ltmp0 and Ltmp1
	.long	Lset3
Lset4 = Ltmp2-Leh_func_begin0           ##     jumps to Ltmp2
	.long	Lset4
	.byte	0                       ##   On action: cleanup
Lset5 = Ltmp1-Leh_func_begin0           ## >> Call Site 3 <<
	.long	Lset5
Lset6 = Ltmp3-Ltmp1                     ##   Call between Ltmp1 and Ltmp3
	.long	Lset6
	.long	0                       ##     has no landing pad
	.byte	0                       ##   On action: cleanup
Lset7 = Ltmp3-Leh_func_begin0           ## >> Call Site 4 <<
	.long	Lset7
Lset8 = Ltmp4-Ltmp3                     ##   Call between Ltmp3 and Ltmp4
	.long	Lset8
Lset9 = Ltmp5-Leh_func_begin0           ##     jumps to Ltmp5
	.long	Lset9
	.byte	0                       ##   On action: cleanup
Lset10 = Ltmp4-Leh_func_begin0          ## >> Call Site 5 <<
	.long	Lset10
Lset11 = Ltmp6-Ltmp4                    ##   Call between Ltmp4 and Ltmp6
	.long	Lset11
	.long	0                       ##     has no landing pad
	.byte	0                       ##   On action: cleanup
Lset12 = Ltmp6-Leh_func_begin0          ## >> Call Site 6 <<
	.long	Lset12
Lset13 = Ltmp7-Ltmp6                    ##   Call between Ltmp6 and Ltmp7
	.long	Lset13
Lset14 = Ltmp8-Leh_func_begin0          ##     jumps to Ltmp8
	.long	Lset14
	.byte	0                       ##   On action: cleanup
Lset15 = Ltmp7-Leh_func_begin0          ## >> Call Site 7 <<
	.long	Lset15
Lset16 = Ltmp11-Ltmp7                   ##   Call between Ltmp7 and Ltmp11
	.long	Lset16
	.long	0                       ##     has no landing pad
	.byte	0                       ##   On action: cleanup
Lset17 = Ltmp11-Leh_func_begin0         ## >> Call Site 8 <<
	.long	Lset17
Lset18 = Ltmp12-Ltmp11                  ##   Call between Ltmp11 and Ltmp12
	.long	Lset18
Lset19 = Ltmp13-Leh_func_begin0         ##     jumps to Ltmp13
	.long	Lset19
	.byte	0                       ##   On action: cleanup
Lset20 = Ltmp12-Leh_func_begin0         ## >> Call Site 9 <<
	.long	Lset20
Lset21 = Ltmp14-Ltmp12                  ##   Call between Ltmp12 and Ltmp14
	.long	Lset21
	.long	0                       ##     has no landing pad
	.byte	0                       ##   On action: cleanup
Lset22 = Ltmp14-Leh_func_begin0         ## >> Call Site 10 <<
	.long	Lset22
Lset23 = Ltmp15-Ltmp14                  ##   Call between Ltmp14 and Ltmp15
	.long	Lset23
Lset24 = Ltmp16-Leh_func_begin0         ##     jumps to Ltmp16
	.long	Lset24
	.byte	0                       ##   On action: cleanup
Lset25 = Ltmp15-Leh_func_begin0         ## >> Call Site 11 <<
	.long	Lset25
Lset26 = Ltmp19-Ltmp15                  ##   Call between Ltmp15 and Ltmp19
	.long	Lset26
	.long	0                       ##     has no landing pad
	.byte	0                       ##   On action: cleanup
Lset27 = Ltmp19-Leh_func_begin0         ## >> Call Site 12 <<
	.long	Lset27
Lset28 = Ltmp20-Ltmp19                  ##   Call between Ltmp19 and Ltmp20
	.long	Lset28
Lset29 = Ltmp21-Leh_func_begin0         ##     jumps to Ltmp21
	.long	Lset29
	.byte	0                       ##   On action: cleanup
Lset30 = Ltmp20-Leh_func_begin0         ## >> Call Site 13 <<
	.long	Lset30
Lset31 = Ltmp22-Ltmp20                  ##   Call between Ltmp20 and Ltmp22
	.long	Lset31
	.long	0                       ##     has no landing pad
	.byte	0                       ##   On action: cleanup
Lset32 = Ltmp22-Leh_func_begin0         ## >> Call Site 14 <<
	.long	Lset32
Lset33 = Ltmp23-Ltmp22                  ##   Call between Ltmp22 and Ltmp23
	.long	Lset33
Lset34 = Ltmp24-Leh_func_begin0         ##     jumps to Ltmp24
	.long	Lset34
	.byte	0                       ##   On action: cleanup
Lset35 = Ltmp23-Leh_func_begin0         ## >> Call Site 15 <<
	.long	Lset35
Lset36 = Ltmp25-Ltmp23                  ##   Call between Ltmp23 and Ltmp25
	.long	Lset36
	.long	0                       ##     has no landing pad
	.byte	0                       ##   On action: cleanup
Lset37 = Ltmp25-Leh_func_begin0         ## >> Call Site 16 <<
	.long	Lset37
Lset38 = Ltmp26-Ltmp25                  ##   Call between Ltmp25 and Ltmp26
	.long	Lset38
Lset39 = Ltmp27-Leh_func_begin0         ##     jumps to Ltmp27
	.long	Lset39
	.byte	0                       ##   On action: cleanup
Lset40 = Ltmp26-Leh_func_begin0         ## >> Call Site 17 <<
	.long	Lset40
Lset41 = Ltmp9-Ltmp26                   ##   Call between Ltmp26 and Ltmp9
	.long	Lset41
	.long	0                       ##     has no landing pad
	.byte	0                       ##   On action: cleanup
Lset42 = Ltmp9-Leh_func_begin0          ## >> Call Site 18 <<
	.long	Lset42
Lset43 = Ltmp29-Ltmp9                   ##   Call between Ltmp9 and Ltmp29
	.long	Lset43
Lset44 = Ltmp30-Leh_func_begin0         ##     jumps to Ltmp30
	.long	Lset44
	.byte	1                       ##   On action: 1
Lset45 = Ltmp29-Leh_func_begin0         ## >> Call Site 19 <<
	.long	Lset45
Lset46 = Leh_func_end0-Ltmp29           ##   Call between Ltmp29 and Leh_func_end0
	.long	Lset46
	.long	0                       ##     has no landing pad
	.byte	0                       ##   On action: cleanup
	.byte	1                       ## >> Action Record 1 <<
                                        ##   Catch TypeInfo 1
	.byte	0                       ##   No further actions
                                        ## >> Catch TypeInfos <<
	.long	0                       ## TypeInfo 1
	.align	2

	.section	__TEXT,__textcoal_nt,coalesced,pure_instructions
	.globl	__ZN10NintendoDSC1Ev
	.weak_def_can_be_hidden	__ZN10NintendoDSC1Ev
	.align	4, 0x90
__ZN10NintendoDSC1Ev:                   ## @_ZN10NintendoDSC1Ev
Lfunc_begin1:
	.loc	13 9 0                  ## ./NintendoDS.h:9:0
	.cfi_startproc
## BB#0:
	pushq	%rbp
Ltmp60:
	.cfi_def_cfa_offset 16
Ltmp61:
	.cfi_offset %rbp, -16
	movq	%rsp, %rbp
Ltmp62:
	.cfi_def_cfa_register %rbp
	subq	$16, %rsp
	movq	%rdi, -8(%rbp)
	movq	-8(%rbp), %rdi
	.loc	13 9 0 prologue_end     ## ./NintendoDS.h:9:0
Ltmp63:
	callq	__ZN10NintendoDSC2Ev
	addq	$16, %rsp
	popq	%rbp
	retq
Ltmp64:
Lfunc_end1:
	.cfi_endproc

	.globl	__ZN11RotaryPhoneC1Ev
	.weak_def_can_be_hidden	__ZN11RotaryPhoneC1Ev
	.align	4, 0x90
__ZN11RotaryPhoneC1Ev:                  ## @_ZN11RotaryPhoneC1Ev
Lfunc_begin2:
	.loc	12 10 0                 ## ./RotaryPhone.h:10:0
	.cfi_startproc
## BB#0:
	pushq	%rbp
Ltmp67:
	.cfi_def_cfa_offset 16
Ltmp68:
	.cfi_offset %rbp, -16
	movq	%rsp, %rbp
Ltmp69:
	.cfi_def_cfa_register %rbp
	subq	$16, %rsp
	movq	%rdi, -8(%rbp)
	movq	-8(%rbp), %rdi
	.loc	12 10 0 prologue_end    ## ./RotaryPhone.h:10:0
Ltmp70:
	callq	__ZN11RotaryPhoneC2Ev
	addq	$16, %rsp
	popq	%rbp
	retq
Ltmp71:
Lfunc_end2:
	.cfi_endproc

	.private_extern	___clang_call_terminate
	.globl	___clang_call_terminate
	.weak_def_can_be_hidden	___clang_call_terminate
	.align	4, 0x90
___clang_call_terminate:                ## @__clang_call_terminate
	.cfi_startproc
## BB#0:
	pushq	%rbp
Ltmp74:
	.cfi_def_cfa_offset 16
Ltmp75:
	.cfi_offset %rbp, -16
	movq	%rsp, %rbp
Ltmp76:
	.cfi_def_cfa_register %rbp
	subq	$16, %rsp
	callq	___cxa_begin_catch
	movq	%rax, -8(%rbp)          ## 8-byte Spill
	callq	__ZSt9terminatev
	.cfi_endproc

	.globl	__ZN9CellPhoneC1Ev
	.weak_def_can_be_hidden	__ZN9CellPhoneC1Ev
	.align	4, 0x90
__ZN9CellPhoneC1Ev:                     ## @_ZN9CellPhoneC1Ev
Lfunc_begin4:
	.loc	11 11 0                 ## ./CellPhone.h:11:0
	.cfi_startproc
## BB#0:
	pushq	%rbp
Ltmp79:
	.cfi_def_cfa_offset 16
Ltmp80:
	.cfi_offset %rbp, -16
	movq	%rsp, %rbp
Ltmp81:
	.cfi_def_cfa_register %rbp
	subq	$16, %rsp
	movq	%rdi, -8(%rbp)
	movq	-8(%rbp), %rdi
	.loc	11 11 0 prologue_end    ## ./CellPhone.h:11:0
Ltmp82:
	callq	__ZN9CellPhoneC2Ev
	addq	$16, %rsp
	popq	%rbp
	retq
Ltmp83:
Lfunc_end4:
	.cfi_endproc

	.globl	__ZN9CellPhoneC2Ev
	.weak_def_can_be_hidden	__ZN9CellPhoneC2Ev
	.align	4, 0x90
__ZN9CellPhoneC2Ev:                     ## @_ZN9CellPhoneC2Ev
Lfunc_begin5:
	.loc	11 11 0                 ## ./CellPhone.h:11:0
	.cfi_startproc
	.cfi_personality 155, ___gxx_personality_v0
Leh_func_begin5:
	.cfi_lsda 16, Lexception5
## BB#0:
	pushq	%rbp
Ltmp92:
	.cfi_def_cfa_offset 16
Ltmp93:
	.cfi_offset %rbp, -16
	movq	%rsp, %rbp
Ltmp94:
	.cfi_def_cfa_register %rbp
	subq	$48, %rsp
	##DEBUG_VALUE: CellPhone:this <- undef
	movq	%rdi, -8(%rbp)
	movq	%rdi, %rax
	.loc	11 11 0 prologue_end    ## ./CellPhone.h:11:0
Ltmp95:
	movq	%rdi, -32(%rbp)         ## 8-byte Spill
	movq	%rax, -40(%rbp)         ## 8-byte Spill
	callq	__ZN5PhoneC2Ev
	movq	-32(%rbp), %rax         ## 8-byte Reload
	addq	$8, %rax
Ltmp84:
	movq	%rax, %rdi
	callq	__ZN10ElectronicC2Ev
Ltmp85:
	jmp	LBB5_1
LBB5_1:
	movq	__ZTV9CellPhone@GOTPCREL(%rip), %rax
	movq	%rax, %rcx
	addq	$72, %rcx
	addq	$16, %rax
	movq	-40(%rbp), %rdx         ## 8-byte Reload
	movq	%rax, (%rdx)
	movq	%rcx, 8(%rdx)
	movb	$0, 16(%rdx)
	addq	$48, %rsp
	popq	%rbp
	retq
LBB5_2:
Ltmp86:
	movl	%edx, %ecx
	movq	%rax, -16(%rbp)
	movl	%ecx, -20(%rbp)
Ltmp87:
	movq	-40(%rbp), %rdi         ## 8-byte Reload
	callq	__ZN5PhoneD2Ev
Ltmp88:
	jmp	LBB5_3
LBB5_3:
	jmp	LBB5_4
LBB5_4:
	movq	-16(%rbp), %rdi
	callq	__Unwind_Resume
LBB5_5:
Ltmp89:
	movl	%edx, %ecx
	movq	%rax, %rdi
	movl	%ecx, -44(%rbp)         ## 4-byte Spill
	callq	___clang_call_terminate
Ltmp96:
Lfunc_end5:
	.cfi_endproc
Leh_func_end5:
	.section	__TEXT,__gcc_except_tab
	.align	2
GCC_except_table5:
Lexception5:
	.byte	255                     ## @LPStart Encoding = omit
	.byte	155                     ## @TType Encoding = indirect pcrel sdata4
	.asciz	"\257\200"              ## @TType base offset
	.byte	3                       ## Call site Encoding = udata4
	.byte	39                      ## Call site table length
Lset47 = Ltmp84-Leh_func_begin5         ## >> Call Site 1 <<
	.long	Lset47
Lset48 = Ltmp85-Ltmp84                  ##   Call between Ltmp84 and Ltmp85
	.long	Lset48
Lset49 = Ltmp86-Leh_func_begin5         ##     jumps to Ltmp86
	.long	Lset49
	.byte	0                       ##   On action: cleanup
Lset50 = Ltmp87-Leh_func_begin5         ## >> Call Site 2 <<
	.long	Lset50
Lset51 = Ltmp88-Ltmp87                  ##   Call between Ltmp87 and Ltmp88
	.long	Lset51
Lset52 = Ltmp89-Leh_func_begin5         ##     jumps to Ltmp89
	.long	Lset52
	.byte	1                       ##   On action: 1
Lset53 = Ltmp88-Leh_func_begin5         ## >> Call Site 3 <<
	.long	Lset53
Lset54 = Leh_func_end5-Ltmp88           ##   Call between Ltmp88 and Leh_func_end5
	.long	Lset54
	.long	0                       ##     has no landing pad
	.byte	0                       ##   On action: cleanup
	.byte	1                       ## >> Action Record 1 <<
                                        ##   Catch TypeInfo 1
	.byte	0                       ##   No further actions
                                        ## >> Catch TypeInfos <<
	.long	0                       ## TypeInfo 1
	.align	2

	.section	__TEXT,__textcoal_nt,coalesced,pure_instructions
	.globl	__ZN5PhoneC2Ev
	.weak_def_can_be_hidden	__ZN5PhoneC2Ev
	.align	4, 0x90
__ZN5PhoneC2Ev:                         ## @_ZN5PhoneC2Ev
Lfunc_begin6:
	.loc	8 9 0                   ## ./Phone.h:9:0
	.cfi_startproc
## BB#0:
	pushq	%rbp
Ltmp99:
	.cfi_def_cfa_offset 16
Ltmp100:
	.cfi_offset %rbp, -16
	movq	%rsp, %rbp
Ltmp101:
	.cfi_def_cfa_register %rbp
	movq	__ZTV5Phone@GOTPCREL(%rip), %rax
	addq	$16, %rax
	movq	%rdi, -8(%rbp)
	movq	-8(%rbp), %rdi
	.loc	8 9 0 prologue_end      ## ./Phone.h:9:0
Ltmp102:
	movq	%rax, (%rdi)
	popq	%rbp
	retq
Ltmp103:
Lfunc_end6:
	.cfi_endproc

	.globl	__ZN10ElectronicC2Ev
	.weak_def_can_be_hidden	__ZN10ElectronicC2Ev
	.align	4, 0x90
__ZN10ElectronicC2Ev:                   ## @_ZN10ElectronicC2Ev
Lfunc_begin7:
	.loc	10 7 0                  ## ./Electronic.h:7:0
	.cfi_startproc
## BB#0:
	pushq	%rbp
Ltmp106:
	.cfi_def_cfa_offset 16
Ltmp107:
	.cfi_offset %rbp, -16
	movq	%rsp, %rbp
Ltmp108:
	.cfi_def_cfa_register %rbp
	movq	__ZTV10Electronic@GOTPCREL(%rip), %rax
	addq	$16, %rax
	movq	%rdi, -8(%rbp)
	movq	-8(%rbp), %rdi
	.loc	10 7 0 prologue_end     ## ./Electronic.h:7:0
Ltmp109:
	movq	%rax, (%rdi)
	popq	%rbp
	retq
Ltmp110:
Lfunc_end7:
	.cfi_endproc

	.globl	__ZN5PhoneD2Ev
	.weak_def_can_be_hidden	__ZN5PhoneD2Ev
	.align	4, 0x90
__ZN5PhoneD2Ev:                         ## @_ZN5PhoneD2Ev
Lfunc_begin8:
	.loc	8 10 0                  ## ./Phone.h:10:0
	.cfi_startproc
## BB#0:
	pushq	%rbp
Ltmp113:
	.cfi_def_cfa_offset 16
Ltmp114:
	.cfi_offset %rbp, -16
	movq	%rsp, %rbp
Ltmp115:
	.cfi_def_cfa_register %rbp
	movq	%rdi, -8(%rbp)
	.loc	8 10 0 prologue_end     ## ./Phone.h:10:0
Ltmp116:
	popq	%rbp
	retq
Ltmp117:
Lfunc_end8:
	.cfi_endproc

	.globl	__ZN10ElectronicD1Ev
	.weak_def_can_be_hidden	__ZN10ElectronicD1Ev
	.align	4, 0x90
__ZN10ElectronicD1Ev:                   ## @_ZN10ElectronicD1Ev
Lfunc_begin9:
	.loc	10 8 0                  ## ./Electronic.h:8:0
	.cfi_startproc
## BB#0:
	pushq	%rbp
Ltmp120:
	.cfi_def_cfa_offset 16
Ltmp121:
	.cfi_offset %rbp, -16
	movq	%rsp, %rbp
Ltmp122:
	.cfi_def_cfa_register %rbp
	subq	$16, %rsp
	movq	%rdi, -8(%rbp)
	movq	-8(%rbp), %rdi
	.loc	10 8 0 prologue_end     ## ./Electronic.h:8:0
Ltmp123:
	callq	__ZN10ElectronicD2Ev
	addq	$16, %rsp
	popq	%rbp
	retq
Ltmp124:
Lfunc_end9:
	.cfi_endproc

	.globl	__ZN10ElectronicD0Ev
	.weak_def_can_be_hidden	__ZN10ElectronicD0Ev
	.align	4, 0x90
__ZN10ElectronicD0Ev:                   ## @_ZN10ElectronicD0Ev
Lfunc_begin10:
	.loc	10 8 0                  ## ./Electronic.h:8:0
	.cfi_startproc
	.cfi_personality 155, ___gxx_personality_v0
Leh_func_begin10:
	.cfi_lsda 16, Lexception10
## BB#0:
	pushq	%rbp
Ltmp130:
	.cfi_def_cfa_offset 16
Ltmp131:
	.cfi_offset %rbp, -16
	movq	%rsp, %rbp
Ltmp132:
	.cfi_def_cfa_register %rbp
	subq	$32, %rsp
	##DEBUG_VALUE: ~Electronic:this <- undef
	movq	%rdi, -8(%rbp)
	movq	%rdi, %rax
	.loc	10 8 0 prologue_end     ## ./Electronic.h:8:0
Ltmp133:
Ltmp125:
	movq	%rax, -32(%rbp)         ## 8-byte Spill
	callq	__ZN10ElectronicD1Ev
Ltmp126:
	jmp	LBB10_1
LBB10_1:
	movq	-32(%rbp), %rax         ## 8-byte Reload
	movq	%rax, %rdi
	callq	__ZdlPv
	addq	$32, %rsp
	popq	%rbp
	retq
LBB10_2:
Ltmp127:
	movl	%edx, %ecx
	movq	%rax, -16(%rbp)
	movl	%ecx, -20(%rbp)
	movq	-32(%rbp), %rax         ## 8-byte Reload
	movq	%rax, %rdi
	callq	__ZdlPv
## BB#3:
	movq	-16(%rbp), %rdi
	callq	__Unwind_Resume
Ltmp134:
Lfunc_end10:
	.cfi_endproc
Leh_func_end10:
	.section	__TEXT,__gcc_except_tab
	.align	2
GCC_except_table10:
Lexception10:
	.byte	255                     ## @LPStart Encoding = omit
	.byte	155                     ## @TType Encoding = indirect pcrel sdata4
	.asciz	"\234"                  ## @TType base offset
	.byte	3                       ## Call site Encoding = udata4
	.byte	26                      ## Call site table length
Lset55 = Ltmp125-Leh_func_begin10       ## >> Call Site 1 <<
	.long	Lset55
Lset56 = Ltmp126-Ltmp125                ##   Call between Ltmp125 and Ltmp126
	.long	Lset56
Lset57 = Ltmp127-Leh_func_begin10       ##     jumps to Ltmp127
	.long	Lset57
	.byte	0                       ##   On action: cleanup
Lset58 = Ltmp126-Leh_func_begin10       ## >> Call Site 2 <<
	.long	Lset58
Lset59 = Leh_func_end10-Ltmp126         ##   Call between Ltmp126 and Leh_func_end10
	.long	Lset59
	.long	0                       ##     has no landing pad
	.byte	0                       ##   On action: cleanup
	.align	2

	.section	__TEXT,__textcoal_nt,coalesced,pure_instructions
	.globl	__ZN10ElectronicD2Ev
	.weak_def_can_be_hidden	__ZN10ElectronicD2Ev
	.align	4, 0x90
__ZN10ElectronicD2Ev:                   ## @_ZN10ElectronicD2Ev
Lfunc_begin11:
	.loc	10 8 0                  ## ./Electronic.h:8:0
	.cfi_startproc
## BB#0:
	pushq	%rbp
Ltmp137:
	.cfi_def_cfa_offset 16
Ltmp138:
	.cfi_offset %rbp, -16
	movq	%rsp, %rbp
Ltmp139:
	.cfi_def_cfa_register %rbp
	movq	%rdi, -8(%rbp)
	.loc	10 8 0 prologue_end     ## ./Electronic.h:8:0
Ltmp140:
	popq	%rbp
	retq
Ltmp141:
Lfunc_end11:
	.cfi_endproc

	.globl	__ZN5PhoneD1Ev
	.weak_def_can_be_hidden	__ZN5PhoneD1Ev
	.align	4, 0x90
__ZN5PhoneD1Ev:                         ## @_ZN5PhoneD1Ev
Lfunc_begin12:
	.loc	8 10 0                  ## ./Phone.h:10:0
	.cfi_startproc
## BB#0:
	pushq	%rbp
Ltmp144:
	.cfi_def_cfa_offset 16
Ltmp145:
	.cfi_offset %rbp, -16
	movq	%rsp, %rbp
Ltmp146:
	.cfi_def_cfa_register %rbp
	subq	$16, %rsp
	movq	%rdi, -8(%rbp)
	movq	-8(%rbp), %rdi
	.loc	8 10 0 prologue_end     ## ./Phone.h:10:0
Ltmp147:
	callq	__ZN5PhoneD2Ev
	addq	$16, %rsp
	popq	%rbp
	retq
Ltmp148:
Lfunc_end12:
	.cfi_endproc

	.globl	__ZN5PhoneD0Ev
	.weak_def_can_be_hidden	__ZN5PhoneD0Ev
	.align	4, 0x90
__ZN5PhoneD0Ev:                         ## @_ZN5PhoneD0Ev
Lfunc_begin13:
	.loc	8 10 0                  ## ./Phone.h:10:0
	.cfi_startproc
	.cfi_personality 155, ___gxx_personality_v0
Leh_func_begin13:
	.cfi_lsda 16, Lexception13
## BB#0:
	pushq	%rbp
Ltmp154:
	.cfi_def_cfa_offset 16
Ltmp155:
	.cfi_offset %rbp, -16
	movq	%rsp, %rbp
Ltmp156:
	.cfi_def_cfa_register %rbp
	subq	$32, %rsp
	##DEBUG_VALUE: ~Phone:this <- undef
	movq	%rdi, -8(%rbp)
	movq	%rdi, %rax
	.loc	8 10 0 prologue_end     ## ./Phone.h:10:0
Ltmp157:
Ltmp149:
	movq	%rax, -32(%rbp)         ## 8-byte Spill
	callq	__ZN5PhoneD1Ev
Ltmp150:
	jmp	LBB13_1
LBB13_1:
	movq	-32(%rbp), %rax         ## 8-byte Reload
	movq	%rax, %rdi
	callq	__ZdlPv
	addq	$32, %rsp
	popq	%rbp
	retq
LBB13_2:
Ltmp151:
	movl	%edx, %ecx
	movq	%rax, -16(%rbp)
	movl	%ecx, -20(%rbp)
	movq	-32(%rbp), %rax         ## 8-byte Reload
	movq	%rax, %rdi
	callq	__ZdlPv
## BB#3:
	movq	-16(%rbp), %rdi
	callq	__Unwind_Resume
Ltmp158:
Lfunc_end13:
	.cfi_endproc
Leh_func_end13:
	.section	__TEXT,__gcc_except_tab
	.align	2
GCC_except_table13:
Lexception13:
	.byte	255                     ## @LPStart Encoding = omit
	.byte	155                     ## @TType Encoding = indirect pcrel sdata4
	.asciz	"\234"                  ## @TType base offset
	.byte	3                       ## Call site Encoding = udata4
	.byte	26                      ## Call site table length
Lset60 = Ltmp149-Leh_func_begin13       ## >> Call Site 1 <<
	.long	Lset60
Lset61 = Ltmp150-Ltmp149                ##   Call between Ltmp149 and Ltmp150
	.long	Lset61
Lset62 = Ltmp151-Leh_func_begin13       ##     jumps to Ltmp151
	.long	Lset62
	.byte	0                       ##   On action: cleanup
Lset63 = Ltmp150-Leh_func_begin13       ## >> Call Site 2 <<
	.long	Lset63
Lset64 = Leh_func_end13-Ltmp150         ##   Call between Ltmp150 and Leh_func_end13
	.long	Lset64
	.long	0                       ##     has no landing pad
	.byte	0                       ##   On action: cleanup
	.align	2

	.section	__TEXT,__textcoal_nt,coalesced,pure_instructions
	.globl	__ZN11RotaryPhoneC2Ev
	.weak_def_can_be_hidden	__ZN11RotaryPhoneC2Ev
	.align	4, 0x90
__ZN11RotaryPhoneC2Ev:                  ## @_ZN11RotaryPhoneC2Ev
Lfunc_begin14:
	.loc	12 10 0                 ## ./RotaryPhone.h:10:0
	.cfi_startproc
## BB#0:
	pushq	%rbp
Ltmp161:
	.cfi_def_cfa_offset 16
Ltmp162:
	.cfi_offset %rbp, -16
	movq	%rsp, %rbp
Ltmp163:
	.cfi_def_cfa_register %rbp
	subq	$16, %rsp
	movq	%rdi, -8(%rbp)
	movq	-8(%rbp), %rdi
	.loc	12 10 0 prologue_end    ## ./RotaryPhone.h:10:0
Ltmp164:
	movq	%rdi, %rax
	movq	%rdi, -16(%rbp)         ## 8-byte Spill
	movq	%rax, %rdi
	callq	__ZN5PhoneC2Ev
	movq	__ZTV11RotaryPhone@GOTPCREL(%rip), %rax
	addq	$16, %rax
	movq	-16(%rbp), %rdi         ## 8-byte Reload
	movq	%rax, (%rdi)
	addq	$16, %rsp
	popq	%rbp
	retq
Ltmp165:
Lfunc_end14:
	.cfi_endproc

	.globl	__ZN10NintendoDSC2Ev
	.weak_def_can_be_hidden	__ZN10NintendoDSC2Ev
	.align	4, 0x90
__ZN10NintendoDSC2Ev:                   ## @_ZN10NintendoDSC2Ev
Lfunc_begin15:
	.loc	13 9 0                  ## ./NintendoDS.h:9:0
	.cfi_startproc
## BB#0:
	pushq	%rbp
Ltmp168:
	.cfi_def_cfa_offset 16
Ltmp169:
	.cfi_offset %rbp, -16
	movq	%rsp, %rbp
Ltmp170:
	.cfi_def_cfa_register %rbp
	subq	$16, %rsp
	movq	%rdi, -8(%rbp)
	movq	-8(%rbp), %rdi
	.loc	13 9 0 prologue_end     ## ./NintendoDS.h:9:0
Ltmp171:
	movq	%rdi, %rax
	movq	%rdi, -16(%rbp)         ## 8-byte Spill
	movq	%rax, %rdi
	callq	__ZN10ElectronicC2Ev
	movq	__ZTV10NintendoDS@GOTPCREL(%rip), %rax
	addq	$16, %rax
	movq	-16(%rbp), %rdi         ## 8-byte Reload
	movq	%rax, (%rdi)
	addq	$16, %rsp
	popq	%rbp
	retq
Ltmp172:
Lfunc_end15:
	.cfi_endproc

	.section	__TEXT,__cstring,cstring_literals
L_.str:                                 ## @.str
	.asciz	"842-1212"

	.section	__DATA,__datacoal_nt,coalesced
	.globl	__ZTV10Electronic       ## @_ZTV10Electronic
	.weak_def_can_be_hidden	__ZTV10Electronic
	.align	4
__ZTV10Electronic:
	.quad	0
	.quad	__ZTI10Electronic
	.quad	__ZN10ElectronicD1Ev
	.quad	__ZN10ElectronicD0Ev
	.quad	___cxa_pure_virtual
	.quad	___cxa_pure_virtual

	.section	__TEXT,__const_coal,coalesced
	.globl	__ZTS10Electronic       ## @_ZTS10Electronic
	.weak_definition	__ZTS10Electronic
__ZTS10Electronic:
	.asciz	"10Electronic"

	.section	__DATA,__datacoal_nt,coalesced
	.globl	__ZTI10Electronic       ## @_ZTI10Electronic
	.weak_definition	__ZTI10Electronic
	.align	3
__ZTI10Electronic:
	.quad	__ZTVN10__cxxabiv117__class_type_infoE+16
	.quad	__ZTS10Electronic

	.globl	__ZTV5Phone             ## @_ZTV5Phone
	.weak_def_can_be_hidden	__ZTV5Phone
	.align	4
__ZTV5Phone:
	.quad	0
	.quad	__ZTI5Phone
	.quad	__ZN5PhoneD1Ev
	.quad	__ZN5PhoneD0Ev
	.quad	___cxa_pure_virtual

	.section	__TEXT,__const_coal,coalesced
	.globl	__ZTS5Phone             ## @_ZTS5Phone
	.weak_definition	__ZTS5Phone
__ZTS5Phone:
	.asciz	"5Phone"

	.section	__DATA,__datacoal_nt,coalesced
	.globl	__ZTI5Phone             ## @_ZTI5Phone
	.weak_definition	__ZTI5Phone
	.align	3
__ZTI5Phone:
	.quad	__ZTVN10__cxxabiv117__class_type_infoE+16
	.quad	__ZTS5Phone

	.section	__TEXT,__text,regular,pure_instructions
Ldebug_end0:
	.section	__TEXT,__textcoal_nt,coalesced,pure_instructions
Ldebug_end1:
	.section	__TEXT,__eh_frame,coalesced,no_toc+strip_static_syms+live_support

.subsections_via_symbols
