	.section	__TEXT,__text,regular,pure_instructions
	.section	__TEXT,__text,regular,pure_instructions
	.globl	__ZN11RotaryPhone8makeCallENSt3__112basic_stringIcNS0_11char_traitsIcEENS0_9allocatorIcEEEE
	.align	4, 0x90
__ZN11RotaryPhone8makeCallENSt3__112basic_stringIcNS0_11char_traitsIcEENS0_9allocatorIcEEEE: ## @_ZN11RotaryPhone8makeCallENSt3__112basic_stringIcNS0_11char_traitsIcEENS0_9allocatorIcEEEE
Lfunc_begin0:
	.loc	1 5 0                   ## RotaryPhone.cpp:5:0
	.cfi_startproc
## BB#0:
	pushq	%rbp
Ltmp2:
	.cfi_def_cfa_offset 16
Ltmp3:
	.cfi_offset %rbp, -16
	movq	%rsp, %rbp
Ltmp4:
	.cfi_def_cfa_register %rbp
	subq	$32, %rsp
	movq	__ZNSt3__14coutE@GOTPCREL(%rip), %rax
	leaq	L_.str(%rip), %rcx
	movq	%rdi, -8(%rbp)
	##DEBUG_VALUE: makeCall:phoneNum <- RSI
	.loc	1 6 0 prologue_end      ## RotaryPhone.cpp:6:0
Ltmp5:
	movq	%rax, %rdi
	movq	%rsi, -16(%rbp)         ## 8-byte Spill
Ltmp6:
	##DEBUG_VALUE: makeCall:phoneNum <- [RBP+-16]
	movq	%rcx, %rsi
	callq	__ZNSt3__1lsINS_11char_traitsIcEEEERNS_13basic_ostreamIcT_EES6_PKc
	movq	%rax, %rdi
	movq	-16(%rbp), %rsi         ## 8-byte Reload
	callq	__ZNSt3__1lsIcNS_11char_traitsIcEENS_9allocatorIcEEEERNS_13basic_ostreamIT_T0_EES9_RKNS_12basic_stringIS6_S7_T1_EE
	leaq	L_.str1(%rip), %rsi
	movq	%rax, %rdi
	callq	__ZNSt3__1lsINS_11char_traitsIcEEEERNS_13basic_ostreamIcT_EES6_PKc
	.loc	1 7 0                   ## RotaryPhone.cpp:7:0
	movq	%rax, -24(%rbp)         ## 8-byte Spill
	addq	$32, %rsp
	popq	%rbp
Ltmp7:
	retq
Ltmp8:
Lfunc_end0:
	.cfi_endproc

	.section	__TEXT,__textcoal_nt,coalesced,pure_instructions
	.globl	__ZNSt3__1lsINS_11char_traitsIcEEEERNS_13basic_ostreamIcT_EES6_PKc
	.weak_def_can_be_hidden	__ZNSt3__1lsINS_11char_traitsIcEEEERNS_13basic_ostreamIcT_EES6_PKc
	.align	4, 0x90
__ZNSt3__1lsINS_11char_traitsIcEEEERNS_13basic_ostreamIcT_EES6_PKc: ## @_ZNSt3__1lsINS_11char_traitsIcEEEERNS_13basic_ostreamIcT_EES6_PKc
Lfunc_begin1:
	.loc	16 881 0                ## /Applications/Xcode.app/Contents/Developer/Toolchains/XcodeDefault.xctoolchain/usr/bin/../include/c++/v1/ostream:881:0
	.cfi_startproc
## BB#0:
	pushq	%rbp
Ltmp11:
	.cfi_def_cfa_offset 16
Ltmp12:
	.cfi_offset %rbp, -16
	movq	%rsp, %rbp
Ltmp13:
	.cfi_def_cfa_register %rbp
	subq	$48, %rsp
	movq	%rdi, -16(%rbp)
	movq	%rsi, -24(%rbp)
	.loc	16 882 0 prologue_end   ## /Applications/Xcode.app/Contents/Developer/Toolchains/XcodeDefault.xctoolchain/usr/bin/../include/c++/v1/ostream:882:0
Ltmp14:
	movq	-16(%rbp), %rdi
	movq	-24(%rbp), %rsi
	movq	-24(%rbp), %rax
	movq	%rax, -8(%rbp)
	.loc	8 651 0                 ## /Applications/Xcode.app/Contents/Developer/Toolchains/XcodeDefault.xctoolchain/usr/bin/../include/c++/v1/string:651:0
Ltmp15:
	movq	-8(%rbp), %rax
	movq	%rdi, -32(%rbp)         ## 8-byte Spill
	movq	%rax, %rdi
	movq	%rsi, -40(%rbp)         ## 8-byte Spill
	callq	_strlen
Ltmp16:
	.loc	16 882 0                ## /Applications/Xcode.app/Contents/Developer/Toolchains/XcodeDefault.xctoolchain/usr/bin/../include/c++/v1/ostream:882:0
	movq	-32(%rbp), %rdi         ## 8-byte Reload
	movq	-40(%rbp), %rsi         ## 8-byte Reload
	movq	%rax, %rdx
	callq	__ZNSt3__124__put_character_sequenceIcNS_11char_traitsIcEEEERNS_13basic_ostreamIT_T0_EES7_PKS4_m
	addq	$48, %rsp
	popq	%rbp
	retq
Ltmp17:
Lfunc_end1:
	.cfi_endproc

	.globl	__ZNSt3__1lsIcNS_11char_traitsIcEENS_9allocatorIcEEEERNS_13basic_ostreamIT_T0_EES9_RKNS_12basic_stringIS6_S7_T1_EE
	.weak_def_can_be_hidden	__ZNSt3__1lsIcNS_11char_traitsIcEENS_9allocatorIcEEEERNS_13basic_ostreamIT_T0_EES9_RKNS_12basic_stringIS6_S7_T1_EE
	.align	4, 0x90
__ZNSt3__1lsIcNS_11char_traitsIcEENS_9allocatorIcEEEERNS_13basic_ostreamIT_T0_EES9_RKNS_12basic_stringIS6_S7_T1_EE: ## @_ZNSt3__1lsIcNS_11char_traitsIcEENS_9allocatorIcEEEERNS_13basic_ostreamIT_T0_EES9_RKNS_12basic_stringIS6_S7_T1_EE
Lfunc_begin2:
	.loc	16 1067 0               ## /Applications/Xcode.app/Contents/Developer/Toolchains/XcodeDefault.xctoolchain/usr/bin/../include/c++/v1/ostream:1067:0
	.cfi_startproc
## BB#0:
	pushq	%rbp
Ltmp20:
	.cfi_def_cfa_offset 16
Ltmp21:
	.cfi_offset %rbp, -16
	movq	%rsp, %rbp
Ltmp22:
	.cfi_def_cfa_register %rbp
	subq	$256, %rsp              ## imm = 0x100
	movq	%rdi, -200(%rbp)
	movq	%rsi, -208(%rbp)
	.loc	16 1068 0 prologue_end  ## /Applications/Xcode.app/Contents/Developer/Toolchains/XcodeDefault.xctoolchain/usr/bin/../include/c++/v1/ostream:1068:0
Ltmp23:
	movq	-200(%rbp), %rdi
	movq	-208(%rbp), %rsi
	movq	%rsi, -192(%rbp)
	movq	-192(%rbp), %rsi
	movq	%rsi, -184(%rbp)
	movq	-184(%rbp), %rsi
	movq	%rsi, -176(%rbp)
	movq	-176(%rbp), %rax
	movq	%rax, -168(%rbp)
	movq	-168(%rbp), %rax
	movq	%rax, -160(%rbp)
	movq	-160(%rbp), %rax
	.loc	8 1631 0                ## /Applications/Xcode.app/Contents/Developer/Toolchains/XcodeDefault.xctoolchain/usr/bin/../include/c++/v1/string:1631:0
Ltmp24:
	movzbl	(%rax), %ecx
	andl	$1, %ecx
Ltmp25:
	.loc	8 1725 0                ## /Applications/Xcode.app/Contents/Developer/Toolchains/XcodeDefault.xctoolchain/usr/bin/../include/c++/v1/string:1725:0
	cmpl	$0, %ecx
	movq	%rdi, -216(%rbp)        ## 8-byte Spill
	movq	%rsi, -224(%rbp)        ## 8-byte Spill
	je	LBB2_2
## BB#1:
	movq	-224(%rbp), %rax        ## 8-byte Reload
	movq	%rax, -112(%rbp)
	movq	-112(%rbp), %rcx
	movq	%rcx, -104(%rbp)
	movq	-104(%rbp), %rcx
	movq	%rcx, -96(%rbp)
	movq	-96(%rbp), %rcx
	.loc	8 1713 0                ## /Applications/Xcode.app/Contents/Developer/Toolchains/XcodeDefault.xctoolchain/usr/bin/../include/c++/v1/string:1713:0
Ltmp26:
	movq	16(%rcx), %rcx
Ltmp27:
	.loc	8 1725 0                ## /Applications/Xcode.app/Contents/Developer/Toolchains/XcodeDefault.xctoolchain/usr/bin/../include/c++/v1/string:1725:0
	movq	%rcx, -232(%rbp)        ## 8-byte Spill
	jmp	LBB2_3
LBB2_2:
	movq	-224(%rbp), %rax        ## 8-byte Reload
	movq	%rax, -152(%rbp)
	movq	-152(%rbp), %rcx
	movq	%rcx, -144(%rbp)
	movq	-144(%rbp), %rcx
	movq	%rcx, -136(%rbp)
	movq	-136(%rbp), %rcx
	.loc	8 1719 0                ## /Applications/Xcode.app/Contents/Developer/Toolchains/XcodeDefault.xctoolchain/usr/bin/../include/c++/v1/string:1719:0
Ltmp28:
	addq	$1, %rcx
	movq	%rcx, -128(%rbp)
	.loc	9 913 17                ## /Applications/Xcode.app/Contents/Developer/Toolchains/XcodeDefault.xctoolchain/usr/bin/../include/c++/v1/memory:913:17
Ltmp29:
	movq	-128(%rbp), %rcx
	movq	%rcx, -120(%rbp)
	.loc	18 85 0                 ## /Applications/Xcode.app/Contents/Developer/Toolchains/XcodeDefault.xctoolchain/usr/bin/../include/c++/v1/__functional_base:85:0
Ltmp30:
	movq	-120(%rbp), %rcx
	movq	%rcx, -232(%rbp)        ## 8-byte Spill
Ltmp31:
LBB2_3:                                 ## %_ZNKSt3__112basic_stringIcNS_11char_traitsIcEENS_9allocatorIcEEE4dataEv.exit
	.loc	8 1725 0                ## /Applications/Xcode.app/Contents/Developer/Toolchains/XcodeDefault.xctoolchain/usr/bin/../include/c++/v1/string:1725:0
	movq	-232(%rbp), %rax        ## 8-byte Reload
	movq	%rax, -88(%rbp)
Ltmp32:
	.loc	9 1039 0                ## /Applications/Xcode.app/Contents/Developer/Toolchains/XcodeDefault.xctoolchain/usr/bin/../include/c++/v1/memory:1039:0
	movq	-88(%rbp), %rsi
Ltmp33:
	.loc	16 1068 0               ## /Applications/Xcode.app/Contents/Developer/Toolchains/XcodeDefault.xctoolchain/usr/bin/../include/c++/v1/ostream:1068:0
	movq	-208(%rbp), %rax
	movq	%rax, -80(%rbp)
	movq	-80(%rbp), %rax
	movq	%rax, -72(%rbp)
	movq	-72(%rbp), %rcx
	movq	%rcx, -64(%rbp)
	movq	-64(%rbp), %rcx
	movq	%rcx, -56(%rbp)
	movq	-56(%rbp), %rcx
	.loc	8 1631 0                ## /Applications/Xcode.app/Contents/Developer/Toolchains/XcodeDefault.xctoolchain/usr/bin/../include/c++/v1/string:1631:0
Ltmp34:
	movzbl	(%rcx), %edx
	andl	$1, %edx
Ltmp35:
	.loc	8 1398 0                ## /Applications/Xcode.app/Contents/Developer/Toolchains/XcodeDefault.xctoolchain/usr/bin/../include/c++/v1/string:1398:0
	cmpl	$0, %edx
	movq	%rsi, -240(%rbp)        ## 8-byte Spill
	movq	%rax, -248(%rbp)        ## 8-byte Spill
	je	LBB2_5
## BB#4:
	movq	-248(%rbp), %rax        ## 8-byte Reload
	movq	%rax, -24(%rbp)
	movq	-24(%rbp), %rcx
	movq	%rcx, -16(%rbp)
	movq	-16(%rbp), %rcx
	movq	%rcx, -8(%rbp)
	movq	-8(%rbp), %rcx
	.loc	8 1693 0                ## /Applications/Xcode.app/Contents/Developer/Toolchains/XcodeDefault.xctoolchain/usr/bin/../include/c++/v1/string:1693:0
Ltmp36:
	movq	8(%rcx), %rcx
Ltmp37:
	.loc	8 1398 0                ## /Applications/Xcode.app/Contents/Developer/Toolchains/XcodeDefault.xctoolchain/usr/bin/../include/c++/v1/string:1398:0
	movq	%rcx, -256(%rbp)        ## 8-byte Spill
	jmp	LBB2_6
LBB2_5:
	movq	-248(%rbp), %rax        ## 8-byte Reload
	movq	%rax, -48(%rbp)
	movq	-48(%rbp), %rcx
	movq	%rcx, -40(%rbp)
	movq	-40(%rbp), %rcx
	movq	%rcx, -32(%rbp)
	movq	-32(%rbp), %rcx
	.loc	8 1683 0                ## /Applications/Xcode.app/Contents/Developer/Toolchains/XcodeDefault.xctoolchain/usr/bin/../include/c++/v1/string:1683:0
Ltmp38:
	movzbl	(%rcx), %edx
	sarl	$1, %edx
	movslq	%edx, %rcx
	movq	%rcx, -256(%rbp)        ## 8-byte Spill
Ltmp39:
LBB2_6:                                 ## %_ZNKSt3__112basic_stringIcNS_11char_traitsIcEENS_9allocatorIcEEE4sizeEv.exit
	.loc	8 1398 0                ## /Applications/Xcode.app/Contents/Developer/Toolchains/XcodeDefault.xctoolchain/usr/bin/../include/c++/v1/string:1398:0
	movq	-256(%rbp), %rax        ## 8-byte Reload
Ltmp40:
	.loc	16 1068 0               ## /Applications/Xcode.app/Contents/Developer/Toolchains/XcodeDefault.xctoolchain/usr/bin/../include/c++/v1/ostream:1068:0
	movq	-216(%rbp), %rdi        ## 8-byte Reload
	movq	-240(%rbp), %rsi        ## 8-byte Reload
	movq	%rax, %rdx
	callq	__ZNSt3__124__put_character_sequenceIcNS_11char_traitsIcEEEERNS_13basic_ostreamIT_T0_EES7_PKS4_m
	addq	$256, %rsp              ## imm = 0x100
	popq	%rbp
	retq
Ltmp41:
Lfunc_end2:
	.cfi_endproc

	.globl	__ZN11RotaryPhoneD1Ev
	.weak_def_can_be_hidden	__ZN11RotaryPhoneD1Ev
	.align	4, 0x90
__ZN11RotaryPhoneD1Ev:                  ## @_ZN11RotaryPhoneD1Ev
Lfunc_begin3:
	.loc	15 11 0                 ## ./RotaryPhone.h:11:0
	.cfi_startproc
## BB#0:
	pushq	%rbp
Ltmp44:
	.cfi_def_cfa_offset 16
Ltmp45:
	.cfi_offset %rbp, -16
	movq	%rsp, %rbp
Ltmp46:
	.cfi_def_cfa_register %rbp
	subq	$16, %rsp
	movq	%rdi, -8(%rbp)
	movq	-8(%rbp), %rdi
	.loc	15 11 0 prologue_end    ## ./RotaryPhone.h:11:0
Ltmp47:
	callq	__ZN11RotaryPhoneD2Ev
	addq	$16, %rsp
	popq	%rbp
	retq
Ltmp48:
Lfunc_end3:
	.cfi_endproc

	.globl	__ZN11RotaryPhoneD0Ev
	.weak_def_can_be_hidden	__ZN11RotaryPhoneD0Ev
	.align	4, 0x90
__ZN11RotaryPhoneD0Ev:                  ## @_ZN11RotaryPhoneD0Ev
Lfunc_begin4:
	.loc	15 11 0                 ## ./RotaryPhone.h:11:0
	.cfi_startproc
	.cfi_personality 155, ___gxx_personality_v0
Leh_func_begin4:
	.cfi_lsda 16, Lexception4
## BB#0:
	pushq	%rbp
Ltmp54:
	.cfi_def_cfa_offset 16
Ltmp55:
	.cfi_offset %rbp, -16
	movq	%rsp, %rbp
Ltmp56:
	.cfi_def_cfa_register %rbp
	subq	$32, %rsp
	##DEBUG_VALUE: ~RotaryPhone:this <- undef
	movq	%rdi, -8(%rbp)
	movq	%rdi, %rax
	.loc	15 11 0 prologue_end    ## ./RotaryPhone.h:11:0
Ltmp57:
Ltmp49:
	movq	%rax, -32(%rbp)         ## 8-byte Spill
	callq	__ZN11RotaryPhoneD1Ev
Ltmp50:
	jmp	LBB4_1
LBB4_1:
	movq	-32(%rbp), %rax         ## 8-byte Reload
	movq	%rax, %rdi
	callq	__ZdlPv
	addq	$32, %rsp
	popq	%rbp
	retq
LBB4_2:
Ltmp51:
	movl	%edx, %ecx
	movq	%rax, -16(%rbp)
	movl	%ecx, -20(%rbp)
	movq	-32(%rbp), %rax         ## 8-byte Reload
	movq	%rax, %rdi
	callq	__ZdlPv
## BB#3:
	movq	-16(%rbp), %rdi
	callq	__Unwind_Resume
Ltmp58:
Lfunc_end4:
	.cfi_endproc
Leh_func_end4:
	.section	__TEXT,__gcc_except_tab
	.align	2
GCC_except_table4:
Lexception4:
	.byte	255                     ## @LPStart Encoding = omit
	.byte	155                     ## @TType Encoding = indirect pcrel sdata4
	.asciz	"\234"                  ## @TType base offset
	.byte	3                       ## Call site Encoding = udata4
	.byte	26                      ## Call site table length
Lset0 = Ltmp49-Leh_func_begin4          ## >> Call Site 1 <<
	.long	Lset0
Lset1 = Ltmp50-Ltmp49                   ##   Call between Ltmp49 and Ltmp50
	.long	Lset1
Lset2 = Ltmp51-Leh_func_begin4          ##     jumps to Ltmp51
	.long	Lset2
	.byte	0                       ##   On action: cleanup
Lset3 = Ltmp50-Leh_func_begin4          ## >> Call Site 2 <<
	.long	Lset3
Lset4 = Leh_func_end4-Ltmp50            ##   Call between Ltmp50 and Leh_func_end4
	.long	Lset4
	.long	0                       ##     has no landing pad
	.byte	0                       ##   On action: cleanup
	.align	2

	.section	__TEXT,__textcoal_nt,coalesced,pure_instructions
	.globl	__ZNSt3__124__put_character_sequenceIcNS_11char_traitsIcEEEERNS_13basic_ostreamIT_T0_EES7_PKS4_m
	.weak_def_can_be_hidden	__ZNSt3__124__put_character_sequenceIcNS_11char_traitsIcEEEERNS_13basic_ostreamIT_T0_EES7_PKS4_m
	.align	4, 0x90
__ZNSt3__124__put_character_sequenceIcNS_11char_traitsIcEEEERNS_13basic_ostreamIT_T0_EES7_PKS4_m: ## @_ZNSt3__124__put_character_sequenceIcNS_11char_traitsIcEEEERNS_13basic_ostreamIT_T0_EES7_PKS4_m
Lfunc_begin5:
	.loc	16 734 0                ## /Applications/Xcode.app/Contents/Developer/Toolchains/XcodeDefault.xctoolchain/usr/bin/../include/c++/v1/ostream:734:0
	.cfi_startproc
	.cfi_personality 155, ___gxx_personality_v0
Leh_func_begin5:
	.cfi_lsda 16, Lexception5
## BB#0:
	pushq	%rbp
Ltmp91:
	.cfi_def_cfa_offset 16
Ltmp92:
	.cfi_offset %rbp, -16
	movq	%rsp, %rbp
Ltmp93:
	.cfi_def_cfa_register %rbp
	subq	$416, %rsp              ## imm = 0x1A0
	##DEBUG_VALUE: __put_character_sequence<char, std::__1::char_traits<char> >:__os <- undef
	##DEBUG_VALUE: __put_character_sequence<char, std::__1::char_traits<char> >:__str <- undef
	##DEBUG_VALUE: __put_character_sequence<char, std::__1::char_traits<char> >:__len <- undef
	movq	%rdi, -208(%rbp)
	movq	%rsi, -216(%rbp)
	movq	%rdx, -224(%rbp)
	.loc	16 739 0 prologue_end   ## /Applications/Xcode.app/Contents/Developer/Toolchains/XcodeDefault.xctoolchain/usr/bin/../include/c++/v1/ostream:739:0
Ltmp94:
	movq	-208(%rbp), %rsi
Ltmp59:
	leaq	-240(%rbp), %rdi
	callq	__ZNSt3__113basic_ostreamIcNS_11char_traitsIcEEE6sentryC1ERS3_
Ltmp60:
	jmp	LBB5_1
LBB5_1:
	leaq	-240(%rbp), %rax
	movq	%rax, -200(%rbp)
	movq	-200(%rbp), %rax
	.loc	16 228 0                ## /Applications/Xcode.app/Contents/Developer/Toolchains/XcodeDefault.xctoolchain/usr/bin/../include/c++/v1/ostream:228:0
Ltmp95:
	movb	(%rax), %cl
	movb	%cl, -273(%rbp)         ## 1-byte Spill
Ltmp96:
## BB#2:
	.loc	16 740 0                ## /Applications/Xcode.app/Contents/Developer/Toolchains/XcodeDefault.xctoolchain/usr/bin/../include/c++/v1/ostream:740:0
	movb	-273(%rbp), %al         ## 1-byte Reload
	testb	$1, %al
	jne	LBB5_3
	jmp	LBB5_26
LBB5_3:
	leaq	-264(%rbp), %rax
	.loc	16 743 0                ## /Applications/Xcode.app/Contents/Developer/Toolchains/XcodeDefault.xctoolchain/usr/bin/../include/c++/v1/ostream:743:0
Ltmp97:
	movq	-208(%rbp), %rcx
	movq	%rax, -184(%rbp)
	movq	%rcx, -192(%rbp)
	movq	-184(%rbp), %rax
	.loc	19 889 0                ## /Applications/Xcode.app/Contents/Developer/Toolchains/XcodeDefault.xctoolchain/usr/bin/../include/c++/v1/iterator:889:0
Ltmp98:
	movq	-192(%rbp), %rcx
	movq	%rax, -152(%rbp)
	movq	%rcx, -160(%rbp)
	movq	-152(%rbp), %rax
	.loc	19 889 0                ## /Applications/Xcode.app/Contents/Developer/Toolchains/XcodeDefault.xctoolchain/usr/bin/../include/c++/v1/iterator:889:0
Ltmp99:
	movq	-160(%rbp), %rcx
	movq	(%rcx), %rdx
	movq	-24(%rdx), %rdx
	addq	%rdx, %rcx
	movq	%rcx, -144(%rbp)
	movq	-144(%rbp), %rcx
	movq	%rcx, -136(%rbp)
	movq	-136(%rbp), %rcx
	.loc	3 337 0                 ## /Applications/Xcode.app/Contents/Developer/Toolchains/XcodeDefault.xctoolchain/usr/bin/../include/c++/v1/ios:337:0
Ltmp100:
	movq	40(%rcx), %rcx
Ltmp101:
	.loc	19 889 0                ## /Applications/Xcode.app/Contents/Developer/Toolchains/XcodeDefault.xctoolchain/usr/bin/../include/c++/v1/iterator:889:0
	movq	%rcx, (%rax)
Ltmp102:
	.loc	16 743 0                ## /Applications/Xcode.app/Contents/Developer/Toolchains/XcodeDefault.xctoolchain/usr/bin/../include/c++/v1/ostream:743:0
	movq	-216(%rbp), %rsi
	.loc	16 745 35               ## /Applications/Xcode.app/Contents/Developer/Toolchains/XcodeDefault.xctoolchain/usr/bin/../include/c++/v1/ostream:745:35
	movq	-208(%rbp), %rax
	movq	(%rax), %rcx
	movq	-24(%rcx), %rcx
	addq	%rcx, %rax
	movq	%rax, -96(%rbp)
	movq	-96(%rbp), %rax
	.loc	3 437 0                 ## /Applications/Xcode.app/Contents/Developer/Toolchains/XcodeDefault.xctoolchain/usr/bin/../include/c++/v1/ios:437:0
Ltmp103:
	movl	8(%rax), %edi
	movq	%rsi, -288(%rbp)        ## 8-byte Spill
	movl	%edi, -292(%rbp)        ## 4-byte Spill
Ltmp104:
## BB#4:
	.loc	16 745 35               ## /Applications/Xcode.app/Contents/Developer/Toolchains/XcodeDefault.xctoolchain/usr/bin/../include/c++/v1/ostream:745:35
	movl	-292(%rbp), %eax        ## 4-byte Reload
	andl	$176, %eax
	cmpl	$32, %eax
	jne	LBB5_6
## BB#5:
	movq	-216(%rbp), %rax
	addq	-224(%rbp), %rax
	movq	%rax, -304(%rbp)        ## 8-byte Spill
	jmp	LBB5_7
LBB5_6:
	movq	-216(%rbp), %rax
	movq	%rax, -304(%rbp)        ## 8-byte Spill
LBB5_7:
	movq	-304(%rbp), %rax        ## 8-byte Reload
	.loc	16 743 0                ## /Applications/Xcode.app/Contents/Developer/Toolchains/XcodeDefault.xctoolchain/usr/bin/../include/c++/v1/ostream:743:0
	movq	-216(%rbp), %rcx
	addq	-224(%rbp), %rcx
	movq	-208(%rbp), %rdx
	movq	(%rdx), %rsi
	movq	-24(%rsi), %rsi
	addq	%rsi, %rdx
	.loc	16 750 0                ## /Applications/Xcode.app/Contents/Developer/Toolchains/XcodeDefault.xctoolchain/usr/bin/../include/c++/v1/ostream:750:0
	movq	-208(%rbp), %rsi
	movq	(%rsi), %rdi
	movq	-24(%rdi), %rdi
	addq	%rdi, %rsi
	movq	%rsi, -80(%rbp)
	movq	-80(%rbp), %rsi
	.loc	3 742 0                 ## /Applications/Xcode.app/Contents/Developer/Toolchains/XcodeDefault.xctoolchain/usr/bin/../include/c++/v1/ios:742:0
Ltmp105:
	movl	144(%rsi), %r8d
	movl	$-1, -4(%rbp)
	movl	%r8d, -8(%rbp)
	.loc	8 679 0                 ## /Applications/Xcode.app/Contents/Developer/Toolchains/XcodeDefault.xctoolchain/usr/bin/../include/c++/v1/string:679:0
Ltmp106:
	movl	-4(%rbp), %r8d
Ltmp107:
	.loc	3 742 0                 ## /Applications/Xcode.app/Contents/Developer/Toolchains/XcodeDefault.xctoolchain/usr/bin/../include/c++/v1/ios:742:0
	cmpl	-8(%rbp), %r8d
	movq	%rax, -312(%rbp)        ## 8-byte Spill
	movq	%rcx, -320(%rbp)        ## 8-byte Spill
	movq	%rdx, -328(%rbp)        ## 8-byte Spill
	movq	%rsi, -336(%rbp)        ## 8-byte Spill
	jne	LBB5_16
## BB#8:
	movq	-336(%rbp), %rax        ## 8-byte Reload
	movq	%rax, -40(%rbp)
	movb	$32, -41(%rbp)
	movq	-40(%rbp), %rsi
Ltmp61:
	leaq	-56(%rbp), %rdi
	callq	__ZNKSt3__18ios_base6getlocEv
Ltmp62:
	jmp	LBB5_9
LBB5_9:                                 ## %.noexc
	leaq	-56(%rbp), %rax
	movq	%rax, -32(%rbp)
Ltmp63:
	movq	__ZNSt3__15ctypeIcE2idE@GOTPCREL(%rip), %rsi
	movq	%rax, %rdi
	callq	__ZNKSt3__16locale9use_facetERNS0_2idE
Ltmp64:
	movq	%rax, -344(%rbp)        ## 8-byte Spill
	jmp	LBB5_10
LBB5_10:                                ## %_ZNSt3__19use_facetINS_5ctypeIcEEEERKT_RKNS_6localeE.exit.i.i
	.loc	3 734 0                 ## /Applications/Xcode.app/Contents/Developer/Toolchains/XcodeDefault.xctoolchain/usr/bin/../include/c++/v1/ios:734:0
Ltmp108:
	movb	-41(%rbp), %al
	movq	-344(%rbp), %rcx        ## 8-byte Reload
	movq	%rcx, -16(%rbp)
	movb	%al, -17(%rbp)
	movq	-16(%rbp), %rdx
	.loc	7 571 0                 ## /Applications/Xcode.app/Contents/Developer/Toolchains/XcodeDefault.xctoolchain/usr/bin/../include/c++/v1/__locale:571:0
Ltmp109:
	movq	(%rdx), %rsi
	movq	56(%rsi), %rsi
	movsbl	-17(%rbp), %edi
Ltmp65:
	movl	%edi, -348(%rbp)        ## 4-byte Spill
	movq	%rdx, %rdi
	movl	-348(%rbp), %r8d        ## 4-byte Reload
	movq	%rsi, -360(%rbp)        ## 8-byte Spill
	movl	%r8d, %esi
	movq	-360(%rbp), %rdx        ## 8-byte Reload
	callq	*%rdx
Ltmp66:
	movb	%al, -361(%rbp)         ## 1-byte Spill
	jmp	LBB5_14
Ltmp110:
LBB5_11:
Ltmp67:
	.loc	3 735 0                 ## /Applications/Xcode.app/Contents/Developer/Toolchains/XcodeDefault.xctoolchain/usr/bin/../include/c++/v1/ios:735:0
	movl	%edx, %ecx
	movq	%rax, -64(%rbp)
	movl	%ecx, -68(%rbp)
Ltmp68:
	leaq	-56(%rbp), %rdi
	callq	__ZNSt3__16localeD1Ev
Ltmp69:
	jmp	LBB5_12
LBB5_12:
	movq	-64(%rbp), %rax
	movl	-68(%rbp), %ecx
	movq	%rax, -376(%rbp)        ## 8-byte Spill
	movl	%ecx, -380(%rbp)        ## 4-byte Spill
	jmp	LBB5_24
LBB5_13:
Ltmp70:
	movl	%edx, %ecx
	movq	%rax, %rdi
	movl	%ecx, -384(%rbp)        ## 4-byte Spill
	callq	___clang_call_terminate
Ltmp111:
LBB5_14:                                ## %_ZNKSt3__19basic_iosIcNS_11char_traitsIcEEE5widenEc.exit.i
Ltmp71:
	leaq	-56(%rbp), %rdi
	callq	__ZNSt3__16localeD1Ev
Ltmp72:
	jmp	LBB5_15
LBB5_15:                                ## %.noexc1
	.loc	3 743 0                 ## /Applications/Xcode.app/Contents/Developer/Toolchains/XcodeDefault.xctoolchain/usr/bin/../include/c++/v1/ios:743:0
	movb	-361(%rbp), %al         ## 1-byte Reload
	movsbl	%al, %ecx
	movq	-336(%rbp), %rdx        ## 8-byte Reload
	movl	%ecx, 144(%rdx)
LBB5_16:                                ## %_ZNKSt3__19basic_iosIcNS_11char_traitsIcEEE4fillEv.exit
	.loc	3 744 0                 ## /Applications/Xcode.app/Contents/Developer/Toolchains/XcodeDefault.xctoolchain/usr/bin/../include/c++/v1/ios:744:0
	movq	-336(%rbp), %rax        ## 8-byte Reload
	movl	144(%rax), %ecx
	movb	%cl, %dl
	movb	%dl, -385(%rbp)         ## 1-byte Spill
Ltmp112:
## BB#17:
	.loc	16 743 0                ## /Applications/Xcode.app/Contents/Developer/Toolchains/XcodeDefault.xctoolchain/usr/bin/../include/c++/v1/ostream:743:0
	movq	-264(%rbp), %rdi
Ltmp73:
	movb	-385(%rbp), %al         ## 1-byte Reload
	movsbl	%al, %r9d
	movq	-288(%rbp), %rsi        ## 8-byte Reload
	movq	-312(%rbp), %rdx        ## 8-byte Reload
	movq	-320(%rbp), %rcx        ## 8-byte Reload
	movq	-328(%rbp), %r8         ## 8-byte Reload
	callq	__ZNSt3__116__pad_and_outputIcNS_11char_traitsIcEEEENS_19ostreambuf_iteratorIT_T0_EES6_PKS4_S8_S8_RNS_8ios_baseES4_
Ltmp74:
	movq	%rax, -400(%rbp)        ## 8-byte Spill
	jmp	LBB5_18
LBB5_18:
	leaq	-272(%rbp), %rax
	movq	-400(%rbp), %rcx        ## 8-byte Reload
	movq	%rcx, -272(%rbp)
	movq	%rax, -88(%rbp)
	movq	-88(%rbp), %rax
	cmpq	$0, (%rax)
	jne	LBB5_25
## BB#19:
	.loc	16 751 0                ## /Applications/Xcode.app/Contents/Developer/Toolchains/XcodeDefault.xctoolchain/usr/bin/../include/c++/v1/ostream:751:0
	movq	-208(%rbp), %rax
	movq	(%rax), %rcx
	movq	-24(%rcx), %rcx
	addq	%rcx, %rax
	movq	%rax, -120(%rbp)
	movl	$5, -124(%rbp)
	movq	-120(%rbp), %rax
	movq	%rax, -104(%rbp)
	movl	$5, -108(%rbp)
	movq	-104(%rbp), %rax
	.loc	3 524 0                 ## /Applications/Xcode.app/Contents/Developer/Toolchains/XcodeDefault.xctoolchain/usr/bin/../include/c++/v1/ios:524:0
Ltmp113:
	movl	32(%rax), %edx
	orl	$5, %edx
Ltmp75:
	movq	%rax, %rdi
	movl	%edx, %esi
	callq	__ZNSt3__18ios_base5clearEj
Ltmp76:
	jmp	LBB5_20
Ltmp114:
LBB5_20:                                ## %_ZNSt3__19basic_iosIcNS_11char_traitsIcEEE8setstateEj.exit
	.loc	3 589 0                 ## /Applications/Xcode.app/Contents/Developer/Toolchains/XcodeDefault.xctoolchain/usr/bin/../include/c++/v1/ios:589:0
	jmp	LBB5_21
Ltmp115:
LBB5_21:
	.loc	16 751 0                ## /Applications/Xcode.app/Contents/Developer/Toolchains/XcodeDefault.xctoolchain/usr/bin/../include/c++/v1/ostream:751:0
	jmp	LBB5_25
Ltmp116:
LBB5_22:
Ltmp82:
	.loc	16 761 0                ## /Applications/Xcode.app/Contents/Developer/Toolchains/XcodeDefault.xctoolchain/usr/bin/../include/c++/v1/ostream:761:0
	movl	%edx, %ecx
	movq	%rax, -248(%rbp)
	movl	%ecx, -252(%rbp)
	jmp	LBB5_29
LBB5_23:
Ltmp77:
	.loc	16 761 0                ## /Applications/Xcode.app/Contents/Developer/Toolchains/XcodeDefault.xctoolchain/usr/bin/../include/c++/v1/ostream:761:0
Ltmp117:
	movl	%edx, %ecx
	movq	%rax, -376(%rbp)        ## 8-byte Spill
	movl	%ecx, -380(%rbp)        ## 4-byte Spill
LBB5_24:                                ## %.body
	movl	-380(%rbp), %eax        ## 4-byte Reload
	movq	-376(%rbp), %rcx        ## 8-byte Reload
	movq	%rcx, -248(%rbp)
	movl	%eax, -252(%rbp)
Ltmp118:
	.loc	16 761 0                ## /Applications/Xcode.app/Contents/Developer/Toolchains/XcodeDefault.xctoolchain/usr/bin/../include/c++/v1/ostream:761:0
Ltmp78:
	leaq	-240(%rbp), %rdi
	callq	__ZNSt3__113basic_ostreamIcNS_11char_traitsIcEEE6sentryD1Ev
Ltmp79:
	jmp	LBB5_28
LBB5_25:
	.loc	16 752 0                ## /Applications/Xcode.app/Contents/Developer/Toolchains/XcodeDefault.xctoolchain/usr/bin/../include/c++/v1/ostream:752:0
Ltmp119:
	jmp	LBB5_26
Ltmp120:
LBB5_26:
	.loc	16 754 0                ## /Applications/Xcode.app/Contents/Developer/Toolchains/XcodeDefault.xctoolchain/usr/bin/../include/c++/v1/ostream:754:0
Ltmp80:
	leaq	-240(%rbp), %rdi
	callq	__ZNSt3__113basic_ostreamIcNS_11char_traitsIcEEE6sentryD1Ev
Ltmp81:
	jmp	LBB5_27
Ltmp121:
LBB5_27:
	.loc	16 754 0                ## /Applications/Xcode.app/Contents/Developer/Toolchains/XcodeDefault.xctoolchain/usr/bin/../include/c++/v1/ostream:754:0
	jmp	LBB5_31
LBB5_28:
	.loc	16 761 0                ## /Applications/Xcode.app/Contents/Developer/Toolchains/XcodeDefault.xctoolchain/usr/bin/../include/c++/v1/ostream:761:0
	jmp	LBB5_29
LBB5_29:
	.loc	16 754 0                ## /Applications/Xcode.app/Contents/Developer/Toolchains/XcodeDefault.xctoolchain/usr/bin/../include/c++/v1/ostream:754:0
	movq	-248(%rbp), %rdi
	callq	___cxa_begin_catch
	.loc	16 757 0                ## /Applications/Xcode.app/Contents/Developer/Toolchains/XcodeDefault.xctoolchain/usr/bin/../include/c++/v1/ostream:757:0
Ltmp122:
	movq	-208(%rbp), %rdi
	movq	(%rdi), %rcx
	movq	-24(%rcx), %rcx
	addq	%rcx, %rdi
Ltmp83:
	movq	%rax, -408(%rbp)        ## 8-byte Spill
	callq	__ZNSt3__18ios_base33__set_badbit_and_consider_rethrowEv
Ltmp84:
	jmp	LBB5_30
LBB5_30:
	.loc	16 758 0                ## /Applications/Xcode.app/Contents/Developer/Toolchains/XcodeDefault.xctoolchain/usr/bin/../include/c++/v1/ostream:758:0
	callq	___cxa_end_catch
Ltmp123:
LBB5_31:
	.loc	16 760 0                ## /Applications/Xcode.app/Contents/Developer/Toolchains/XcodeDefault.xctoolchain/usr/bin/../include/c++/v1/ostream:760:0
	movq	-208(%rbp), %rax
	addq	$416, %rsp              ## imm = 0x1A0
	popq	%rbp
	retq
LBB5_32:
Ltmp85:
	.loc	16 761 0                ## /Applications/Xcode.app/Contents/Developer/Toolchains/XcodeDefault.xctoolchain/usr/bin/../include/c++/v1/ostream:761:0
Ltmp124:
	movl	%edx, %ecx
	movq	%rax, -248(%rbp)
	movl	%ecx, -252(%rbp)
Ltmp125:
	.loc	16 761 0                ## /Applications/Xcode.app/Contents/Developer/Toolchains/XcodeDefault.xctoolchain/usr/bin/../include/c++/v1/ostream:761:0
Ltmp86:
	callq	___cxa_end_catch
Ltmp87:
	jmp	LBB5_33
LBB5_33:
	jmp	LBB5_34
LBB5_34:
	movq	-248(%rbp), %rdi
	callq	__Unwind_Resume
LBB5_35:
Ltmp88:
	movl	%edx, %ecx
	movq	%rax, %rdi
	movl	%ecx, -412(%rbp)        ## 4-byte Spill
	callq	___clang_call_terminate
Ltmp126:
Lfunc_end5:
	.cfi_endproc
Leh_func_end5:
	.section	__TEXT,__gcc_except_tab
	.align	2
GCC_except_table5:
Lexception5:
	.byte	255                     ## @LPStart Encoding = omit
	.byte	155                     ## @TType Encoding = indirect pcrel sdata4
	.asciz	"\253\201"              ## @TType base offset
	.byte	3                       ## Call site Encoding = udata4
	.ascii	"\234\001"              ## Call site table length
Lset5 = Ltmp59-Leh_func_begin5          ## >> Call Site 1 <<
	.long	Lset5
Lset6 = Ltmp60-Ltmp59                   ##   Call between Ltmp59 and Ltmp60
	.long	Lset6
Lset7 = Ltmp82-Leh_func_begin5          ##     jumps to Ltmp82
	.long	Lset7
	.byte	5                       ##   On action: 3
Lset8 = Ltmp61-Leh_func_begin5          ## >> Call Site 2 <<
	.long	Lset8
Lset9 = Ltmp62-Ltmp61                   ##   Call between Ltmp61 and Ltmp62
	.long	Lset9
Lset10 = Ltmp77-Leh_func_begin5         ##     jumps to Ltmp77
	.long	Lset10
	.byte	5                       ##   On action: 3
Lset11 = Ltmp63-Leh_func_begin5         ## >> Call Site 3 <<
	.long	Lset11
Lset12 = Ltmp66-Ltmp63                  ##   Call between Ltmp63 and Ltmp66
	.long	Lset12
Lset13 = Ltmp67-Leh_func_begin5         ##     jumps to Ltmp67
	.long	Lset13
	.byte	3                       ##   On action: 2
Lset14 = Ltmp68-Leh_func_begin5         ## >> Call Site 4 <<
	.long	Lset14
Lset15 = Ltmp69-Ltmp68                  ##   Call between Ltmp68 and Ltmp69
	.long	Lset15
Lset16 = Ltmp70-Leh_func_begin5         ##     jumps to Ltmp70
	.long	Lset16
	.byte	7                       ##   On action: 4
Lset17 = Ltmp71-Leh_func_begin5         ## >> Call Site 5 <<
	.long	Lset17
Lset18 = Ltmp76-Ltmp71                  ##   Call between Ltmp71 and Ltmp76
	.long	Lset18
Lset19 = Ltmp77-Leh_func_begin5         ##     jumps to Ltmp77
	.long	Lset19
	.byte	5                       ##   On action: 3
Lset20 = Ltmp78-Leh_func_begin5         ## >> Call Site 6 <<
	.long	Lset20
Lset21 = Ltmp79-Ltmp78                  ##   Call between Ltmp78 and Ltmp79
	.long	Lset21
Lset22 = Ltmp88-Leh_func_begin5         ##     jumps to Ltmp88
	.long	Lset22
	.byte	5                       ##   On action: 3
Lset23 = Ltmp80-Leh_func_begin5         ## >> Call Site 7 <<
	.long	Lset23
Lset24 = Ltmp81-Ltmp80                  ##   Call between Ltmp80 and Ltmp81
	.long	Lset24
Lset25 = Ltmp82-Leh_func_begin5         ##     jumps to Ltmp82
	.long	Lset25
	.byte	5                       ##   On action: 3
Lset26 = Ltmp81-Leh_func_begin5         ## >> Call Site 8 <<
	.long	Lset26
Lset27 = Ltmp83-Ltmp81                  ##   Call between Ltmp81 and Ltmp83
	.long	Lset27
	.long	0                       ##     has no landing pad
	.byte	0                       ##   On action: cleanup
Lset28 = Ltmp83-Leh_func_begin5         ## >> Call Site 9 <<
	.long	Lset28
Lset29 = Ltmp84-Ltmp83                  ##   Call between Ltmp83 and Ltmp84
	.long	Lset29
Lset30 = Ltmp85-Leh_func_begin5         ##     jumps to Ltmp85
	.long	Lset30
	.byte	0                       ##   On action: cleanup
Lset31 = Ltmp84-Leh_func_begin5         ## >> Call Site 10 <<
	.long	Lset31
Lset32 = Ltmp86-Ltmp84                  ##   Call between Ltmp84 and Ltmp86
	.long	Lset32
	.long	0                       ##     has no landing pad
	.byte	0                       ##   On action: cleanup
Lset33 = Ltmp86-Leh_func_begin5         ## >> Call Site 11 <<
	.long	Lset33
Lset34 = Ltmp87-Ltmp86                  ##   Call between Ltmp86 and Ltmp87
	.long	Lset34
Lset35 = Ltmp88-Leh_func_begin5         ##     jumps to Ltmp88
	.long	Lset35
	.byte	5                       ##   On action: 3
Lset36 = Ltmp87-Leh_func_begin5         ## >> Call Site 12 <<
	.long	Lset36
Lset37 = Leh_func_end5-Ltmp87           ##   Call between Ltmp87 and Leh_func_end5
	.long	Lset37
	.long	0                       ##     has no landing pad
	.byte	0                       ##   On action: cleanup
	.byte	0                       ## >> Action Record 1 <<
                                        ##   Cleanup
	.byte	0                       ##   No further actions
	.byte	1                       ## >> Action Record 2 <<
                                        ##   Catch TypeInfo 1
	.byte	125                     ##   Continue to action 1
	.byte	1                       ## >> Action Record 3 <<
                                        ##   Catch TypeInfo 1
	.byte	0                       ##   No further actions
	.byte	1                       ## >> Action Record 4 <<
                                        ##   Catch TypeInfo 1
	.byte	125                     ##   Continue to action 3
                                        ## >> Catch TypeInfos <<
	.long	0                       ## TypeInfo 1
	.align	2

	.section	__TEXT,__textcoal_nt,coalesced,pure_instructions
	.private_extern	__ZNSt3__116__pad_and_outputIcNS_11char_traitsIcEEEENS_19ostreambuf_iteratorIT_T0_EES6_PKS4_S8_S8_RNS_8ios_baseES4_
	.globl	__ZNSt3__116__pad_and_outputIcNS_11char_traitsIcEEEENS_19ostreambuf_iteratorIT_T0_EES6_PKS4_S8_S8_RNS_8ios_baseES4_
	.weak_def_can_be_hidden	__ZNSt3__116__pad_and_outputIcNS_11char_traitsIcEEEENS_19ostreambuf_iteratorIT_T0_EES6_PKS4_S8_S8_RNS_8ios_baseES4_
	.align	4, 0x90
__ZNSt3__116__pad_and_outputIcNS_11char_traitsIcEEEENS_19ostreambuf_iteratorIT_T0_EES6_PKS4_S8_S8_RNS_8ios_baseES4_: ## @_ZNSt3__116__pad_and_outputIcNS_11char_traitsIcEEEENS_19ostreambuf_iteratorIT_T0_EES6_PKS4_S8_S8_RNS_8ios_baseES4_
Lfunc_begin6:
	.loc	20 1479 0               ## /Applications/Xcode.app/Contents/Developer/Toolchains/XcodeDefault.xctoolchain/usr/bin/../include/c++/v1/locale:1479:0
	.cfi_startproc
	.cfi_personality 155, ___gxx_personality_v0
Leh_func_begin6:
	.cfi_lsda 16, Lexception6
## BB#0:
	pushq	%rbp
Ltmp135:
	.cfi_def_cfa_offset 16
Ltmp136:
	.cfi_offset %rbp, -16
	movq	%rsp, %rbp
Ltmp137:
	.cfi_def_cfa_register %rbp
	subq	$720, %rsp              ## imm = 0x2D0
	movb	%r9b, %al
	leaq	-552(%rbp), %r10
	leaq	-488(%rbp), %r11
	movq	%rdi, -504(%rbp)
	movq	%rsi, -512(%rbp)
	movq	%rdx, -520(%rbp)
	movq	%rcx, -528(%rbp)
	movq	%r8, -536(%rbp)
	movb	%al, -537(%rbp)
	.loc	20 1480 0 prologue_end  ## /Applications/Xcode.app/Contents/Developer/Toolchains/XcodeDefault.xctoolchain/usr/bin/../include/c++/v1/locale:1480:0
Ltmp138:
	movq	-504(%rbp), %rcx
	movq	%r11, -472(%rbp)
	movq	$-1, -480(%rbp)
	movq	-472(%rbp), %rdx
	.loc	21 66 0                 ## /Applications/Xcode.app/Contents/Developer/Toolchains/XcodeDefault.xctoolchain/usr/bin/../include/c++/v1/cstddef:66:0
Ltmp139:
	movq	-480(%rbp), %rsi
	movq	%rdx, -456(%rbp)
	movq	%rsi, -464(%rbp)
	movq	-456(%rbp), %rdx
	.loc	21 66 0                 ## /Applications/Xcode.app/Contents/Developer/Toolchains/XcodeDefault.xctoolchain/usr/bin/../include/c++/v1/cstddef:66:0
Ltmp140:
	movq	$0, (%rdx)
Ltmp141:
	.loc	21 86 0                 ## /Applications/Xcode.app/Contents/Developer/Toolchains/XcodeDefault.xctoolchain/usr/bin/../include/c++/v1/cstddef:86:0
	movq	-488(%rbp), %rdx
Ltmp142:
	.loc	20 1480 0               ## /Applications/Xcode.app/Contents/Developer/Toolchains/XcodeDefault.xctoolchain/usr/bin/../include/c++/v1/locale:1480:0
	movq	%rdx, -552(%rbp)
	movq	%r10, -448(%rbp)
	cmpq	$0, %rcx
	jne	LBB6_2
## BB#1:
	.loc	20 1481 0               ## /Applications/Xcode.app/Contents/Developer/Toolchains/XcodeDefault.xctoolchain/usr/bin/../include/c++/v1/locale:1481:0
	movq	-504(%rbp), %rax
	movq	%rax, -496(%rbp)
	jmp	LBB6_29
Ltmp143:
LBB6_2:
	.loc	20 1482 0               ## /Applications/Xcode.app/Contents/Developer/Toolchains/XcodeDefault.xctoolchain/usr/bin/../include/c++/v1/locale:1482:0
	movq	-528(%rbp), %rax
	movq	-512(%rbp), %rcx
	subq	%rcx, %rax
	movq	%rax, -560(%rbp)
	.loc	20 1483 23              ## /Applications/Xcode.app/Contents/Developer/Toolchains/XcodeDefault.xctoolchain/usr/bin/../include/c++/v1/locale:1483:23
	movq	-536(%rbp), %rax
	movq	%rax, -344(%rbp)
	movq	-344(%rbp), %rax
	.loc	3 499 0                 ## /Applications/Xcode.app/Contents/Developer/Toolchains/XcodeDefault.xctoolchain/usr/bin/../include/c++/v1/ios:499:0
Ltmp144:
	movq	24(%rax), %rax
Ltmp145:
	.loc	20 1483 23              ## /Applications/Xcode.app/Contents/Developer/Toolchains/XcodeDefault.xctoolchain/usr/bin/../include/c++/v1/locale:1483:23
	movq	%rax, -568(%rbp)
	.loc	20 1484 0               ## /Applications/Xcode.app/Contents/Developer/Toolchains/XcodeDefault.xctoolchain/usr/bin/../include/c++/v1/locale:1484:0
Ltmp146:
	movq	-568(%rbp), %rax
	cmpq	-560(%rbp), %rax
	jle	LBB6_4
## BB#3:
	.loc	20 1485 0               ## /Applications/Xcode.app/Contents/Developer/Toolchains/XcodeDefault.xctoolchain/usr/bin/../include/c++/v1/locale:1485:0
	movq	-560(%rbp), %rax
	movq	-568(%rbp), %rcx
	subq	%rax, %rcx
	movq	%rcx, -568(%rbp)
	jmp	LBB6_5
LBB6_4:
	.loc	20 1487 0               ## /Applications/Xcode.app/Contents/Developer/Toolchains/XcodeDefault.xctoolchain/usr/bin/../include/c++/v1/locale:1487:0
	movq	$0, -568(%rbp)
Ltmp147:
LBB6_5:
	.loc	20 1488 0               ## /Applications/Xcode.app/Contents/Developer/Toolchains/XcodeDefault.xctoolchain/usr/bin/../include/c++/v1/locale:1488:0
	movq	-520(%rbp), %rax
	movq	-512(%rbp), %rcx
	subq	%rcx, %rax
	movq	%rax, -576(%rbp)
	.loc	20 1489 0               ## /Applications/Xcode.app/Contents/Developer/Toolchains/XcodeDefault.xctoolchain/usr/bin/../include/c++/v1/locale:1489:0
Ltmp148:
	cmpq	$0, -576(%rbp)
	jle	LBB6_9
## BB#6:
	.loc	20 1491 0               ## /Applications/Xcode.app/Contents/Developer/Toolchains/XcodeDefault.xctoolchain/usr/bin/../include/c++/v1/locale:1491:0
Ltmp149:
	movq	-504(%rbp), %rax
	movq	-512(%rbp), %rcx
	movq	-576(%rbp), %rdx
	movq	%rax, -248(%rbp)
	movq	%rcx, -256(%rbp)
	movq	%rdx, -264(%rbp)
	movq	-248(%rbp), %rax
	.loc	17 360 0                ## /Applications/Xcode.app/Contents/Developer/Toolchains/XcodeDefault.xctoolchain/usr/bin/../include/c++/v1/streambuf:360:0
Ltmp150:
	movq	(%rax), %rcx
	movq	96(%rcx), %rcx
	movq	-256(%rbp), %rsi
	movq	-264(%rbp), %rdx
	movq	%rax, %rdi
	callq	*%rcx
Ltmp151:
	.loc	20 1491 0               ## /Applications/Xcode.app/Contents/Developer/Toolchains/XcodeDefault.xctoolchain/usr/bin/../include/c++/v1/locale:1491:0
	cmpq	-576(%rbp), %rax
	je	LBB6_8
## BB#7:
	leaq	-584(%rbp), %rax
	leaq	-240(%rbp), %rcx
	movq	%rcx, -224(%rbp)
	movq	$-1, -232(%rbp)
	movq	-224(%rbp), %rcx
	.loc	21 66 0                 ## /Applications/Xcode.app/Contents/Developer/Toolchains/XcodeDefault.xctoolchain/usr/bin/../include/c++/v1/cstddef:66:0
Ltmp152:
	movq	-232(%rbp), %rdx
	movq	%rcx, -208(%rbp)
	movq	%rdx, -216(%rbp)
	movq	-208(%rbp), %rcx
	.loc	21 66 0                 ## /Applications/Xcode.app/Contents/Developer/Toolchains/XcodeDefault.xctoolchain/usr/bin/../include/c++/v1/cstddef:66:0
Ltmp153:
	movq	$0, (%rcx)
Ltmp154:
	.loc	21 86 0                 ## /Applications/Xcode.app/Contents/Developer/Toolchains/XcodeDefault.xctoolchain/usr/bin/../include/c++/v1/cstddef:86:0
	movq	-240(%rbp), %rcx
Ltmp155:
	.loc	20 1493 0               ## /Applications/Xcode.app/Contents/Developer/Toolchains/XcodeDefault.xctoolchain/usr/bin/../include/c++/v1/locale:1493:0
	movq	%rcx, -584(%rbp)
	movq	%rax, -8(%rbp)
	movq	$0, -504(%rbp)
	.loc	20 1494 0               ## /Applications/Xcode.app/Contents/Developer/Toolchains/XcodeDefault.xctoolchain/usr/bin/../include/c++/v1/locale:1494:0
	movq	-504(%rbp), %rax
	movq	%rax, -496(%rbp)
	jmp	LBB6_29
Ltmp156:
LBB6_8:
	.loc	20 1496 0               ## /Applications/Xcode.app/Contents/Developer/Toolchains/XcodeDefault.xctoolchain/usr/bin/../include/c++/v1/locale:1496:0
	jmp	LBB6_9
Ltmp157:
LBB6_9:
	.loc	20 1497 0               ## /Applications/Xcode.app/Contents/Developer/Toolchains/XcodeDefault.xctoolchain/usr/bin/../include/c++/v1/locale:1497:0
	cmpq	$0, -568(%rbp)
	jle	LBB6_24
## BB#10:
	leaq	-608(%rbp), %rax
Ltmp158:
	##DEBUG_VALUE: __sp <- RAX
	.loc	20 1499 0               ## /Applications/Xcode.app/Contents/Developer/Toolchains/XcodeDefault.xctoolchain/usr/bin/../include/c++/v1/locale:1499:0
	movq	-568(%rbp), %rcx
	movb	-537(%rbp), %dl
	movq	%rax, -72(%rbp)
	movq	%rcx, -80(%rbp)
	movb	%dl, -81(%rbp)
	movq	-72(%rbp), %rax
Ltmp159:
	.loc	8 2102 0                ## /Applications/Xcode.app/Contents/Developer/Toolchains/XcodeDefault.xctoolchain/usr/bin/../include/c++/v1/string:2102:0
	movq	-80(%rbp), %rcx
	movb	-81(%rbp), %dl
	movq	%rax, -48(%rbp)
	movq	%rcx, -56(%rbp)
	movb	%dl, -57(%rbp)
	movq	-48(%rbp), %rax
	movq	%rax, -40(%rbp)
	movq	-40(%rbp), %rcx
	movq	%rcx, -32(%rbp)
	movq	-32(%rbp), %rcx
	movq	%rcx, -24(%rbp)
	movq	-24(%rbp), %rcx
	movq	%rcx, -16(%rbp)
	.loc	8 2098 0                ## /Applications/Xcode.app/Contents/Developer/Toolchains/XcodeDefault.xctoolchain/usr/bin/../include/c++/v1/string:2098:0
Ltmp160:
	movq	-56(%rbp), %rsi
	movq	%rax, %rdi
	movsbl	-57(%rbp), %edx
	callq	__ZNSt3__112basic_stringIcNS_11char_traitsIcEENS_9allocatorIcEEE6__initEmc
	leaq	-608(%rbp), %rax
Ltmp161:
	.loc	20 1500 0               ## /Applications/Xcode.app/Contents/Developer/Toolchains/XcodeDefault.xctoolchain/usr/bin/../include/c++/v1/locale:1500:0
	movq	-504(%rbp), %rcx
	movq	%rax, -200(%rbp)
	movq	-200(%rbp), %rax
	movq	%rax, -192(%rbp)
	movq	-192(%rbp), %rax
	movq	%rax, -184(%rbp)
	movq	-184(%rbp), %rsi
	movq	%rsi, -176(%rbp)
	movq	-176(%rbp), %rsi
	movq	%rsi, -168(%rbp)
	movq	-168(%rbp), %rsi
	.loc	8 1631 0                ## /Applications/Xcode.app/Contents/Developer/Toolchains/XcodeDefault.xctoolchain/usr/bin/../include/c++/v1/string:1631:0
Ltmp162:
	movzbl	(%rsi), %edx
	andl	$1, %edx
Ltmp163:
	.loc	8 1725 0                ## /Applications/Xcode.app/Contents/Developer/Toolchains/XcodeDefault.xctoolchain/usr/bin/../include/c++/v1/string:1725:0
	cmpl	$0, %edx
	movq	%rcx, -656(%rbp)        ## 8-byte Spill
	movq	%rax, -664(%rbp)        ## 8-byte Spill
	je	LBB6_12
## BB#11:
	movq	-664(%rbp), %rax        ## 8-byte Reload
	movq	%rax, -120(%rbp)
	movq	-120(%rbp), %rcx
	movq	%rcx, -112(%rbp)
	movq	-112(%rbp), %rcx
	movq	%rcx, -104(%rbp)
	movq	-104(%rbp), %rcx
	.loc	8 1713 0                ## /Applications/Xcode.app/Contents/Developer/Toolchains/XcodeDefault.xctoolchain/usr/bin/../include/c++/v1/string:1713:0
Ltmp164:
	movq	16(%rcx), %rcx
Ltmp165:
	.loc	8 1725 0                ## /Applications/Xcode.app/Contents/Developer/Toolchains/XcodeDefault.xctoolchain/usr/bin/../include/c++/v1/string:1725:0
	movq	%rcx, -672(%rbp)        ## 8-byte Spill
	jmp	LBB6_13
LBB6_12:
	movq	-664(%rbp), %rax        ## 8-byte Reload
	movq	%rax, -160(%rbp)
	movq	-160(%rbp), %rcx
	movq	%rcx, -152(%rbp)
	movq	-152(%rbp), %rcx
	movq	%rcx, -144(%rbp)
	movq	-144(%rbp), %rcx
	.loc	8 1719 0                ## /Applications/Xcode.app/Contents/Developer/Toolchains/XcodeDefault.xctoolchain/usr/bin/../include/c++/v1/string:1719:0
Ltmp166:
	addq	$1, %rcx
	movq	%rcx, -136(%rbp)
	.loc	9 913 17                ## /Applications/Xcode.app/Contents/Developer/Toolchains/XcodeDefault.xctoolchain/usr/bin/../include/c++/v1/memory:913:17
Ltmp167:
	movq	-136(%rbp), %rcx
	movq	%rcx, -128(%rbp)
	.loc	18 85 0                 ## /Applications/Xcode.app/Contents/Developer/Toolchains/XcodeDefault.xctoolchain/usr/bin/../include/c++/v1/__functional_base:85:0
Ltmp168:
	movq	-128(%rbp), %rcx
	movq	%rcx, -672(%rbp)        ## 8-byte Spill
Ltmp169:
LBB6_13:                                ## %_ZNKSt3__112basic_stringIcNS_11char_traitsIcEENS_9allocatorIcEEE4dataEv.exit
	.loc	8 1725 0                ## /Applications/Xcode.app/Contents/Developer/Toolchains/XcodeDefault.xctoolchain/usr/bin/../include/c++/v1/string:1725:0
	movq	-672(%rbp), %rax        ## 8-byte Reload
	movq	%rax, -96(%rbp)
Ltmp170:
	.loc	20 1500 0               ## /Applications/Xcode.app/Contents/Developer/Toolchains/XcodeDefault.xctoolchain/usr/bin/../include/c++/v1/locale:1500:0
	movq	-568(%rbp), %rcx
	movq	-656(%rbp), %rdx        ## 8-byte Reload
	movq	%rdx, -272(%rbp)
	movq	%rax, -280(%rbp)
	movq	%rcx, -288(%rbp)
	movq	-272(%rbp), %rax
	.loc	17 360 0                ## /Applications/Xcode.app/Contents/Developer/Toolchains/XcodeDefault.xctoolchain/usr/bin/../include/c++/v1/streambuf:360:0
Ltmp171:
	movq	(%rax), %rsi
	movq	96(%rsi), %rsi
	movq	-280(%rbp), %rdi
Ltmp127:
	movq	%rdi, -680(%rbp)        ## 8-byte Spill
	movq	%rax, %rdi
	movq	-680(%rbp), %rax        ## 8-byte Reload
	movq	%rsi, -688(%rbp)        ## 8-byte Spill
	movq	%rax, %rsi
	movq	%rcx, %rdx
	movq	-688(%rbp), %rcx        ## 8-byte Reload
	callq	*%rcx
Ltmp128:
	movq	%rax, -696(%rbp)        ## 8-byte Spill
	jmp	LBB6_14
LBB6_14:                                ## %_ZNSt3__115basic_streambufIcNS_11char_traitsIcEEE5sputnEPKcl.exit
	jmp	LBB6_15
Ltmp172:
LBB6_15:
	.loc	20 1500 0               ## /Applications/Xcode.app/Contents/Developer/Toolchains/XcodeDefault.xctoolchain/usr/bin/../include/c++/v1/locale:1500:0
	movq	-696(%rbp), %rax        ## 8-byte Reload
	cmpq	-568(%rbp), %rax
	je	LBB6_20
## BB#16:
	leaq	-328(%rbp), %rax
	movq	%rax, -312(%rbp)
	movq	$-1, -320(%rbp)
	movq	-312(%rbp), %rax
	.loc	21 66 0                 ## /Applications/Xcode.app/Contents/Developer/Toolchains/XcodeDefault.xctoolchain/usr/bin/../include/c++/v1/cstddef:66:0
Ltmp173:
	movq	-320(%rbp), %rcx
	movq	%rax, -296(%rbp)
	movq	%rcx, -304(%rbp)
	movq	-296(%rbp), %rax
	.loc	21 66 0                 ## /Applications/Xcode.app/Contents/Developer/Toolchains/XcodeDefault.xctoolchain/usr/bin/../include/c++/v1/cstddef:66:0
Ltmp174:
	movq	$0, (%rax)
Ltmp175:
	.loc	21 86 0                 ## /Applications/Xcode.app/Contents/Developer/Toolchains/XcodeDefault.xctoolchain/usr/bin/../include/c++/v1/cstddef:86:0
	movq	-328(%rbp), %rax
	movq	%rax, -704(%rbp)        ## 8-byte Spill
Ltmp176:
## BB#17:
	leaq	-632(%rbp), %rax
	.loc	20 1502 0               ## /Applications/Xcode.app/Contents/Developer/Toolchains/XcodeDefault.xctoolchain/usr/bin/../include/c++/v1/locale:1502:0
	movq	-704(%rbp), %rcx        ## 8-byte Reload
	movq	%rcx, -632(%rbp)
	movq	%rax, -336(%rbp)
## BB#18:
	movq	$0, -504(%rbp)
	.loc	20 1503 0               ## /Applications/Xcode.app/Contents/Developer/Toolchains/XcodeDefault.xctoolchain/usr/bin/../include/c++/v1/locale:1503:0
	movq	-504(%rbp), %rax
	movq	%rax, -496(%rbp)
	movl	$1, -636(%rbp)
	jmp	LBB6_21
Ltmp177:
LBB6_19:
Ltmp129:
	.loc	20 1517 0               ## /Applications/Xcode.app/Contents/Developer/Toolchains/XcodeDefault.xctoolchain/usr/bin/../include/c++/v1/locale:1517:0
	movl	%edx, %ecx
	movq	%rax, -616(%rbp)
	movl	%ecx, -620(%rbp)
Ltmp178:
	.loc	20 1517 0               ## /Applications/Xcode.app/Contents/Developer/Toolchains/XcodeDefault.xctoolchain/usr/bin/../include/c++/v1/locale:1517:0
Ltmp130:
	leaq	-608(%rbp), %rdi
	callq	__ZNSt3__112basic_stringIcNS_11char_traitsIcEENS_9allocatorIcEEED1Ev
Ltmp131:
	jmp	LBB6_23
LBB6_20:
	.loc	20 1505 0               ## /Applications/Xcode.app/Contents/Developer/Toolchains/XcodeDefault.xctoolchain/usr/bin/../include/c++/v1/locale:1505:0
Ltmp179:
	movl	$0, -636(%rbp)
LBB6_21:
	leaq	-608(%rbp), %rdi
	callq	__ZNSt3__112basic_stringIcNS_11char_traitsIcEENS_9allocatorIcEEED1Ev
	movl	-636(%rbp), %eax
	movl	%eax, %ecx
	subl	$1, %ecx
	movl	%eax, -708(%rbp)        ## 4-byte Spill
	movl	%ecx, -712(%rbp)        ## 4-byte Spill
	je	LBB6_29
	jmp	LBB6_33
Ltmp180:
LBB6_33:
	movl	-708(%rbp), %eax        ## 4-byte Reload
	testl	%eax, %eax
	jne	LBB6_32
	jmp	LBB6_22
LBB6_22:
	.loc	20 1505 0               ## /Applications/Xcode.app/Contents/Developer/Toolchains/XcodeDefault.xctoolchain/usr/bin/../include/c++/v1/locale:1505:0
	jmp	LBB6_24
LBB6_23:
	.loc	20 1517 0               ## /Applications/Xcode.app/Contents/Developer/Toolchains/XcodeDefault.xctoolchain/usr/bin/../include/c++/v1/locale:1517:0
	jmp	LBB6_30
Ltmp181:
LBB6_24:
	.loc	20 1506 0               ## /Applications/Xcode.app/Contents/Developer/Toolchains/XcodeDefault.xctoolchain/usr/bin/../include/c++/v1/locale:1506:0
	movq	-528(%rbp), %rax
	movq	-520(%rbp), %rcx
	subq	%rcx, %rax
	movq	%rax, -576(%rbp)
	.loc	20 1507 0               ## /Applications/Xcode.app/Contents/Developer/Toolchains/XcodeDefault.xctoolchain/usr/bin/../include/c++/v1/locale:1507:0
Ltmp182:
	cmpq	$0, -576(%rbp)
	jle	LBB6_28
## BB#25:
	.loc	20 1509 0               ## /Applications/Xcode.app/Contents/Developer/Toolchains/XcodeDefault.xctoolchain/usr/bin/../include/c++/v1/locale:1509:0
Ltmp183:
	movq	-504(%rbp), %rax
	movq	-520(%rbp), %rcx
	movq	-576(%rbp), %rdx
	movq	%rax, -352(%rbp)
	movq	%rcx, -360(%rbp)
	movq	%rdx, -368(%rbp)
	movq	-352(%rbp), %rax
	.loc	17 360 0                ## /Applications/Xcode.app/Contents/Developer/Toolchains/XcodeDefault.xctoolchain/usr/bin/../include/c++/v1/streambuf:360:0
Ltmp184:
	movq	(%rax), %rcx
	movq	96(%rcx), %rcx
	movq	-360(%rbp), %rsi
	movq	-368(%rbp), %rdx
	movq	%rax, %rdi
	callq	*%rcx
Ltmp185:
	.loc	20 1509 0               ## /Applications/Xcode.app/Contents/Developer/Toolchains/XcodeDefault.xctoolchain/usr/bin/../include/c++/v1/locale:1509:0
	cmpq	-576(%rbp), %rax
	je	LBB6_27
## BB#26:
	leaq	-648(%rbp), %rax
	leaq	-408(%rbp), %rcx
	movq	%rcx, -392(%rbp)
	movq	$-1, -400(%rbp)
	movq	-392(%rbp), %rcx
	.loc	21 66 0                 ## /Applications/Xcode.app/Contents/Developer/Toolchains/XcodeDefault.xctoolchain/usr/bin/../include/c++/v1/cstddef:66:0
Ltmp186:
	movq	-400(%rbp), %rdx
	movq	%rcx, -376(%rbp)
	movq	%rdx, -384(%rbp)
	movq	-376(%rbp), %rcx
	.loc	21 66 0                 ## /Applications/Xcode.app/Contents/Developer/Toolchains/XcodeDefault.xctoolchain/usr/bin/../include/c++/v1/cstddef:66:0
Ltmp187:
	movq	$0, (%rcx)
Ltmp188:
	.loc	21 86 0                 ## /Applications/Xcode.app/Contents/Developer/Toolchains/XcodeDefault.xctoolchain/usr/bin/../include/c++/v1/cstddef:86:0
	movq	-408(%rbp), %rcx
Ltmp189:
	.loc	20 1511 0               ## /Applications/Xcode.app/Contents/Developer/Toolchains/XcodeDefault.xctoolchain/usr/bin/../include/c++/v1/locale:1511:0
	movq	%rcx, -648(%rbp)
	movq	%rax, -416(%rbp)
	movq	$0, -504(%rbp)
	.loc	20 1512 0               ## /Applications/Xcode.app/Contents/Developer/Toolchains/XcodeDefault.xctoolchain/usr/bin/../include/c++/v1/locale:1512:0
	movq	-504(%rbp), %rax
	movq	%rax, -496(%rbp)
	jmp	LBB6_29
Ltmp190:
LBB6_27:
	.loc	20 1514 0               ## /Applications/Xcode.app/Contents/Developer/Toolchains/XcodeDefault.xctoolchain/usr/bin/../include/c++/v1/locale:1514:0
	jmp	LBB6_28
Ltmp191:
LBB6_28:
	.loc	20 1515 0               ## /Applications/Xcode.app/Contents/Developer/Toolchains/XcodeDefault.xctoolchain/usr/bin/../include/c++/v1/locale:1515:0
	movq	-536(%rbp), %rax
	movq	%rax, -424(%rbp)
	movq	$0, -432(%rbp)
	movq	-424(%rbp), %rax
	.loc	3 506 0                 ## /Applications/Xcode.app/Contents/Developer/Toolchains/XcodeDefault.xctoolchain/usr/bin/../include/c++/v1/ios:506:0
Ltmp192:
	movq	24(%rax), %rcx
	movq	%rcx, -440(%rbp)
	.loc	3 507 0                 ## /Applications/Xcode.app/Contents/Developer/Toolchains/XcodeDefault.xctoolchain/usr/bin/../include/c++/v1/ios:507:0
	movq	-432(%rbp), %rcx
	movq	%rcx, 24(%rax)
Ltmp193:
	.loc	20 1516 0               ## /Applications/Xcode.app/Contents/Developer/Toolchains/XcodeDefault.xctoolchain/usr/bin/../include/c++/v1/locale:1516:0
	movq	-504(%rbp), %rax
	movq	%rax, -496(%rbp)
LBB6_29:
	.loc	20 1517 0               ## /Applications/Xcode.app/Contents/Developer/Toolchains/XcodeDefault.xctoolchain/usr/bin/../include/c++/v1/locale:1517:0
	movq	-496(%rbp), %rax
	addq	$720, %rsp              ## imm = 0x2D0
	popq	%rbp
	retq
LBB6_30:
	.loc	20 1517 0               ## /Applications/Xcode.app/Contents/Developer/Toolchains/XcodeDefault.xctoolchain/usr/bin/../include/c++/v1/locale:1517:0
Ltmp194:
	movq	-616(%rbp), %rdi
	callq	__Unwind_Resume
LBB6_31:
Ltmp132:
	movl	%edx, %ecx
	movq	%rax, %rdi
	movl	%ecx, -716(%rbp)        ## 4-byte Spill
	callq	___clang_call_terminate
Ltmp195:
LBB6_32:
Lfunc_end6:
	.cfi_endproc
Leh_func_end6:
	.section	__TEXT,__gcc_except_tab
	.align	2
GCC_except_table6:
Lexception6:
	.byte	255                     ## @LPStart Encoding = omit
	.byte	155                     ## @TType Encoding = indirect pcrel sdata4
	.asciz	"\274"                  ## @TType base offset
	.byte	3                       ## Call site Encoding = udata4
	.byte	52                      ## Call site table length
Lset38 = Leh_func_begin6-Leh_func_begin6 ## >> Call Site 1 <<
	.long	Lset38
Lset39 = Ltmp127-Leh_func_begin6        ##   Call between Leh_func_begin6 and Ltmp127
	.long	Lset39
	.long	0                       ##     has no landing pad
	.byte	0                       ##   On action: cleanup
Lset40 = Ltmp127-Leh_func_begin6        ## >> Call Site 2 <<
	.long	Lset40
Lset41 = Ltmp128-Ltmp127                ##   Call between Ltmp127 and Ltmp128
	.long	Lset41
Lset42 = Ltmp129-Leh_func_begin6        ##     jumps to Ltmp129
	.long	Lset42
	.byte	0                       ##   On action: cleanup
Lset43 = Ltmp130-Leh_func_begin6        ## >> Call Site 3 <<
	.long	Lset43
Lset44 = Ltmp131-Ltmp130                ##   Call between Ltmp130 and Ltmp131
	.long	Lset44
Lset45 = Ltmp132-Leh_func_begin6        ##     jumps to Ltmp132
	.long	Lset45
	.byte	1                       ##   On action: 1
Lset46 = Ltmp131-Leh_func_begin6        ## >> Call Site 4 <<
	.long	Lset46
Lset47 = Leh_func_end6-Ltmp131          ##   Call between Ltmp131 and Leh_func_end6
	.long	Lset47
	.long	0                       ##     has no landing pad
	.byte	0                       ##   On action: cleanup
	.byte	1                       ## >> Action Record 1 <<
                                        ##   Catch TypeInfo 1
	.byte	0                       ##   No further actions
                                        ## >> Catch TypeInfos <<
	.long	0                       ## TypeInfo 1
	.align	2

	.section	__TEXT,__textcoal_nt,coalesced,pure_instructions
	.private_extern	___clang_call_terminate
	.globl	___clang_call_terminate
	.weak_def_can_be_hidden	___clang_call_terminate
	.align	4, 0x90
___clang_call_terminate:                ## @__clang_call_terminate
	.cfi_startproc
## BB#0:
	pushq	%rbp
Ltmp198:
	.cfi_def_cfa_offset 16
Ltmp199:
	.cfi_offset %rbp, -16
	movq	%rsp, %rbp
Ltmp200:
	.cfi_def_cfa_register %rbp
	subq	$16, %rsp
	callq	___cxa_begin_catch
	movq	%rax, -8(%rbp)          ## 8-byte Spill
	callq	__ZSt9terminatev
	.cfi_endproc

	.globl	__ZN11RotaryPhoneD2Ev
	.weak_def_can_be_hidden	__ZN11RotaryPhoneD2Ev
	.align	4, 0x90
__ZN11RotaryPhoneD2Ev:                  ## @_ZN11RotaryPhoneD2Ev
Lfunc_begin8:
	.loc	15 11 0                 ## ./RotaryPhone.h:11:0
	.cfi_startproc
## BB#0:
	pushq	%rbp
Ltmp203:
	.cfi_def_cfa_offset 16
Ltmp204:
	.cfi_offset %rbp, -16
	movq	%rsp, %rbp
Ltmp205:
	.cfi_def_cfa_register %rbp
	subq	$16, %rsp
	movq	%rdi, -8(%rbp)
	movq	-8(%rbp), %rdi
	.loc	15 11 0 prologue_end    ## ./RotaryPhone.h:11:0
Ltmp206:
	callq	__ZN5PhoneD2Ev
Ltmp207:
	.loc	15 11 0                 ## ./RotaryPhone.h:11:0
	addq	$16, %rsp
	popq	%rbp
	retq
Ltmp208:
Lfunc_end8:
	.cfi_endproc

	.globl	__ZN5PhoneD2Ev
	.weak_def_can_be_hidden	__ZN5PhoneD2Ev
	.align	4, 0x90
__ZN5PhoneD2Ev:                         ## @_ZN5PhoneD2Ev
Lfunc_begin9:
	.loc	14 10 0                 ## ./Phone.h:10:0
	.cfi_startproc
## BB#0:
	pushq	%rbp
Ltmp211:
	.cfi_def_cfa_offset 16
Ltmp212:
	.cfi_offset %rbp, -16
	movq	%rsp, %rbp
Ltmp213:
	.cfi_def_cfa_register %rbp
	movq	%rdi, -8(%rbp)
	.loc	14 10 0 prologue_end    ## ./Phone.h:10:0
Ltmp214:
	popq	%rbp
	retq
Ltmp215:
Lfunc_end9:
	.cfi_endproc

	.section	__TEXT,__cstring,cstring_literals
L_.str:                                 ## @.str
	.asciz	"Dailing "

L_.str1:                                ## @.str1
	.asciz	" on rotary phone.\n"

	.section	__DATA,__const
	.globl	__ZTV11RotaryPhone      ## @_ZTV11RotaryPhone
	.align	4
__ZTV11RotaryPhone:
	.quad	0
	.quad	__ZTI11RotaryPhone
	.quad	__ZN11RotaryPhoneD1Ev
	.quad	__ZN11RotaryPhoneD0Ev
	.quad	__ZN11RotaryPhone8makeCallENSt3__112basic_stringIcNS0_11char_traitsIcEENS0_9allocatorIcEEEE

	.section	__TEXT,__const
	.globl	__ZTS11RotaryPhone      ## @_ZTS11RotaryPhone
__ZTS11RotaryPhone:
	.asciz	"11RotaryPhone"

	.section	__TEXT,__const_coal,coalesced
	.globl	__ZTS5Phone             ## @_ZTS5Phone
	.weak_definition	__ZTS5Phone
__ZTS5Phone:
	.asciz	"5Phone"

	.section	__DATA,__datacoal_nt,coalesced
	.globl	__ZTI5Phone             ## @_ZTI5Phone
	.weak_definition	__ZTI5Phone
	.align	3
__ZTI5Phone:
	.quad	__ZTVN10__cxxabiv117__class_type_infoE+16
	.quad	__ZTS5Phone

	.section	__DATA,__const
	.globl	__ZTI11RotaryPhone      ## @_ZTI11RotaryPhone
	.align	4
__ZTI11RotaryPhone:
	.quad	__ZTVN10__cxxabiv120__si_class_type_infoE+16
	.quad	__ZTS11RotaryPhone
	.quad	__ZTI5Phone

	.section	__TEXT,__text,regular,pure_instructions
Ldebug_end0:
	.section	__TEXT,__textcoal_nt,coalesced,pure_instructions
Ldebug_end1:
	.section	__TEXT,__eh_frame,coalesced,no_toc+strip_static_syms+live_support

.subsections_via_symbols
