TI ARM Assembler PC v5.0.4 Mon Apr 28 11:29:12 2014

Tools Copyright (c) 1996-2013 Texas Instruments Incorporated
rit128x96x4.asm                                                      PAGE    1

       1                    ;******************************************************************************
       2                    ;* TI ARM C/C++ Codegen                                             PC v5.0.4 *
       3                    ;* Date/Time created: Mon Apr 28 11:29:11 2014                                *
       4                    ;******************************************************************************
       5                            .compiler_opts --abi=eabi --arm_vmrs_si_workaround=on --code_state=16 --disable_dual_state --e
       6 00000000                   .thumb
       7                    
       8                    $C$DW$CU        .dwtag  DW_TAG_compile_unit
       9                            .dwattr $C$DW$CU, DW_AT_name("../Drivers/rit128x96x4.c")
      10                            .dwattr $C$DW$CU, DW_AT_producer("TI TI ARM C/C++ Codegen PC v5.0.4 Copyright (c) 1996-2013 Te
      11                            .dwattr $C$DW$CU, DW_AT_TI_version(0x01)
      12                            .dwattr $C$DW$CU, DW_AT_comp_dir("H:\EECS_388\TI_ARM_Project\FreeRTOS_IntTimer\Debug")
      13                    
      14                    $C$DW$1 .dwtag  DW_TAG_subprogram, DW_AT_name("GPIOPadConfigSet")
      15                            .dwattr $C$DW$1, DW_AT_TI_symbol_name("GPIOPadConfigSet")
      16                            .dwattr $C$DW$1, DW_AT_declaration
      17                            .dwattr $C$DW$1, DW_AT_external
      18                            .dwattr $C$DW$1, DW_AT_decl_file("C:/TI_CodeComposer/StellarisWare-LM3S1968/driverlib/gpio.h")
      19                            .dwattr $C$DW$1, DW_AT_decl_line(0x7f)
      20                            .dwattr $C$DW$1, DW_AT_decl_column(0x0d)
      21                    $C$DW$2 .dwtag  DW_TAG_formal_parameter
      22                            .dwattr $C$DW$2, DW_AT_type(*$C$DW$T$13)
      23                    $C$DW$3 .dwtag  DW_TAG_formal_parameter
      24                            .dwattr $C$DW$3, DW_AT_type(*$C$DW$T$6)
      25                    $C$DW$4 .dwtag  DW_TAG_formal_parameter
      26                            .dwattr $C$DW$4, DW_AT_type(*$C$DW$T$13)
      27                    $C$DW$5 .dwtag  DW_TAG_formal_parameter
      28                            .dwattr $C$DW$5, DW_AT_type(*$C$DW$T$13)
      29                            .dwendtag $C$DW$1
      30                    
      31                    
      32                    $C$DW$6 .dwtag  DW_TAG_subprogram, DW_AT_name("GPIOPinWrite")
      33                            .dwattr $C$DW$6, DW_AT_TI_symbol_name("GPIOPinWrite")
      34                            .dwattr $C$DW$6, DW_AT_declaration
      35                            .dwattr $C$DW$6, DW_AT_external
      36                            .dwattr $C$DW$6, DW_AT_decl_file("C:/TI_CodeComposer/StellarisWare-LM3S1968/driverlib/gpio.h")
      37                            .dwattr $C$DW$6, DW_AT_decl_line(0x8d)
      38                            .dwattr $C$DW$6, DW_AT_decl_column(0x0d)
      39                    $C$DW$7 .dwtag  DW_TAG_formal_parameter
      40                            .dwattr $C$DW$7, DW_AT_type(*$C$DW$T$13)
      41                    $C$DW$8 .dwtag  DW_TAG_formal_parameter
      42                            .dwattr $C$DW$8, DW_AT_type(*$C$DW$T$6)
      43                    $C$DW$9 .dwtag  DW_TAG_formal_parameter
      44                            .dwattr $C$DW$9, DW_AT_type(*$C$DW$T$6)
      45                            .dwendtag $C$DW$6
      46                    
      47                    
      48                    $C$DW$10        .dwtag  DW_TAG_subprogram, DW_AT_name("GPIOPinTypeGPIOOutput")
      49                            .dwattr $C$DW$10, DW_AT_TI_symbol_name("GPIOPinTypeGPIOOutput")
      50                            .dwattr $C$DW$10, DW_AT_declaration
      51                            .dwattr $C$DW$10, DW_AT_external
      52                            .dwattr $C$DW$10, DW_AT_decl_file("C:/TI_CodeComposer/StellarisWare-LM3S1968/driverlib/gpio.h"
      53                            .dwattr $C$DW$10, DW_AT_decl_line(0x98)
      54                            .dwattr $C$DW$10, DW_AT_decl_column(0x0d)
      55                    $C$DW$11        .dwtag  DW_TAG_formal_parameter
TI ARM Assembler PC v5.0.4 Mon Apr 28 11:29:12 2014

Tools Copyright (c) 1996-2013 Texas Instruments Incorporated
rit128x96x4.asm                                                      PAGE    2

      56                            .dwattr $C$DW$11, DW_AT_type(*$C$DW$T$13)
      57                    $C$DW$12        .dwtag  DW_TAG_formal_parameter
      58                            .dwattr $C$DW$12, DW_AT_type(*$C$DW$T$6)
      59                            .dwendtag $C$DW$10
      60                    
      61                    
      62                    $C$DW$13        .dwtag  DW_TAG_subprogram, DW_AT_name("GPIOPinTypeSSI")
      63                            .dwattr $C$DW$13, DW_AT_TI_symbol_name("GPIOPinTypeSSI")
      64                            .dwattr $C$DW$13, DW_AT_declaration
      65                            .dwattr $C$DW$13, DW_AT_external
      66                            .dwattr $C$DW$13, DW_AT_decl_file("C:/TI_CodeComposer/StellarisWare-LM3S1968/driverlib/gpio.h"
      67                            .dwattr $C$DW$13, DW_AT_decl_line(0xa3)
      68                            .dwattr $C$DW$13, DW_AT_decl_column(0x0d)
      69                    $C$DW$14        .dwtag  DW_TAG_formal_parameter
      70                            .dwattr $C$DW$14, DW_AT_type(*$C$DW$T$13)
      71                    $C$DW$15        .dwtag  DW_TAG_formal_parameter
      72                            .dwattr $C$DW$15, DW_AT_type(*$C$DW$T$6)
      73                            .dwendtag $C$DW$13
      74                    
      75                    
      76                    $C$DW$16        .dwtag  DW_TAG_subprogram, DW_AT_name("SSIConfigSetExpClk")
      77                            .dwattr $C$DW$16, DW_AT_TI_symbol_name("SSIConfigSetExpClk")
      78                            .dwattr $C$DW$16, DW_AT_declaration
      79                            .dwattr $C$DW$16, DW_AT_external
      80                            .dwattr $C$DW$16, DW_AT_decl_file("C:/TI_CodeComposer/StellarisWare-LM3S1968/driverlib/ssi.h")
      81                            .dwattr $C$DW$16, DW_AT_decl_line(0x67)
      82                            .dwattr $C$DW$16, DW_AT_decl_column(0x0d)
      83                    $C$DW$17        .dwtag  DW_TAG_formal_parameter
      84                            .dwattr $C$DW$17, DW_AT_type(*$C$DW$T$13)
      85                    $C$DW$18        .dwtag  DW_TAG_formal_parameter
      86                            .dwattr $C$DW$18, DW_AT_type(*$C$DW$T$13)
      87                    $C$DW$19        .dwtag  DW_TAG_formal_parameter
      88                            .dwattr $C$DW$19, DW_AT_type(*$C$DW$T$13)
      89                    $C$DW$20        .dwtag  DW_TAG_formal_parameter
      90                            .dwattr $C$DW$20, DW_AT_type(*$C$DW$T$13)
      91                    $C$DW$21        .dwtag  DW_TAG_formal_parameter
      92                            .dwattr $C$DW$21, DW_AT_type(*$C$DW$T$13)
      93                    $C$DW$22        .dwtag  DW_TAG_formal_parameter
      94                            .dwattr $C$DW$22, DW_AT_type(*$C$DW$T$13)
      95                            .dwendtag $C$DW$16
      96                    
      97                    
      98                    $C$DW$23        .dwtag  DW_TAG_subprogram, DW_AT_name("SSIDataGetNonBlocking")
      99                            .dwattr $C$DW$23, DW_AT_TI_symbol_name("SSIDataGetNonBlocking")
     100                            .dwattr $C$DW$23, DW_AT_type(*$C$DW$T$12)
     101                            .dwattr $C$DW$23, DW_AT_declaration
     102                            .dwattr $C$DW$23, DW_AT_external
     103                            .dwattr $C$DW$23, DW_AT_decl_file("C:/TI_CodeComposer/StellarisWare-LM3S1968/driverlib/ssi.h")
     104                            .dwattr $C$DW$23, DW_AT_decl_line(0x6c)
     105                            .dwattr $C$DW$23, DW_AT_decl_column(0x0d)
     106                    $C$DW$24        .dwtag  DW_TAG_formal_parameter
     107                            .dwattr $C$DW$24, DW_AT_type(*$C$DW$T$13)
     108                    $C$DW$25        .dwtag  DW_TAG_formal_parameter
     109                            .dwattr $C$DW$25, DW_AT_type(*$C$DW$T$54)
     110                            .dwendtag $C$DW$23
TI ARM Assembler PC v5.0.4 Mon Apr 28 11:29:12 2014

Tools Copyright (c) 1996-2013 Texas Instruments Incorporated
rit128x96x4.asm                                                      PAGE    3

     111                    
     112                    
     113                    $C$DW$26        .dwtag  DW_TAG_subprogram, DW_AT_name("SSIDataPut")
     114                            .dwattr $C$DW$26, DW_AT_TI_symbol_name("SSIDataPut")
     115                            .dwattr $C$DW$26, DW_AT_declaration
     116                            .dwattr $C$DW$26, DW_AT_external
     117                            .dwattr $C$DW$26, DW_AT_decl_file("C:/TI_CodeComposer/StellarisWare-LM3S1968/driverlib/ssi.h")
     118                            .dwattr $C$DW$26, DW_AT_decl_line(0x6e)
     119                            .dwattr $C$DW$26, DW_AT_decl_column(0x0d)
     120                    $C$DW$27        .dwtag  DW_TAG_formal_parameter
     121                            .dwattr $C$DW$27, DW_AT_type(*$C$DW$T$13)
     122                    $C$DW$28        .dwtag  DW_TAG_formal_parameter
     123                            .dwattr $C$DW$28, DW_AT_type(*$C$DW$T$13)
     124                            .dwendtag $C$DW$26
     125                    
     126                    
     127                    $C$DW$29        .dwtag  DW_TAG_subprogram, DW_AT_name("SSIDisable")
     128                            .dwattr $C$DW$29, DW_AT_TI_symbol_name("SSIDisable")
     129                            .dwattr $C$DW$29, DW_AT_declaration
     130                            .dwattr $C$DW$29, DW_AT_external
     131                            .dwattr $C$DW$29, DW_AT_decl_file("C:/TI_CodeComposer/StellarisWare-LM3S1968/driverlib/ssi.h")
     132                            .dwattr $C$DW$29, DW_AT_decl_line(0x70)
     133                            .dwattr $C$DW$29, DW_AT_decl_column(0x0d)
     134                    $C$DW$30        .dwtag  DW_TAG_formal_parameter
     135                            .dwattr $C$DW$30, DW_AT_type(*$C$DW$T$13)
     136                            .dwendtag $C$DW$29
     137                    
     138                    
     139                    $C$DW$31        .dwtag  DW_TAG_subprogram, DW_AT_name("SSIEnable")
     140                            .dwattr $C$DW$31, DW_AT_TI_symbol_name("SSIEnable")
     141                            .dwattr $C$DW$31, DW_AT_declaration
     142                            .dwattr $C$DW$31, DW_AT_external
     143                            .dwattr $C$DW$31, DW_AT_decl_file("C:/TI_CodeComposer/StellarisWare-LM3S1968/driverlib/ssi.h")
     144                            .dwattr $C$DW$31, DW_AT_decl_line(0x71)
     145                            .dwattr $C$DW$31, DW_AT_decl_column(0x0d)
     146                    $C$DW$32        .dwtag  DW_TAG_formal_parameter
     147                            .dwattr $C$DW$32, DW_AT_type(*$C$DW$T$13)
     148                            .dwendtag $C$DW$31
     149                    
     150                    
     151                    $C$DW$33        .dwtag  DW_TAG_subprogram, DW_AT_name("SSIBusy")
     152                            .dwattr $C$DW$33, DW_AT_TI_symbol_name("SSIBusy")
     153                            .dwattr $C$DW$33, DW_AT_type(*$C$DW$T$51)
     154                            .dwattr $C$DW$33, DW_AT_declaration
     155                            .dwattr $C$DW$33, DW_AT_external
     156                            .dwattr $C$DW$33, DW_AT_decl_file("C:/TI_CodeComposer/StellarisWare-LM3S1968/driverlib/ssi.h")
     157                            .dwattr $C$DW$33, DW_AT_decl_line(0x7a)
     158                            .dwattr $C$DW$33, DW_AT_decl_column(0x11)
     159                    $C$DW$34        .dwtag  DW_TAG_formal_parameter
     160                            .dwattr $C$DW$34, DW_AT_type(*$C$DW$T$13)
     161                            .dwendtag $C$DW$33
     162                    
     163                    
     164                    $C$DW$35        .dwtag  DW_TAG_subprogram, DW_AT_name("SysCtlPeripheralEnable")
     165                            .dwattr $C$DW$35, DW_AT_TI_symbol_name("SysCtlPeripheralEnable")
TI ARM Assembler PC v5.0.4 Mon Apr 28 11:29:12 2014

Tools Copyright (c) 1996-2013 Texas Instruments Incorporated
rit128x96x4.asm                                                      PAGE    4

     166                            .dwattr $C$DW$35, DW_AT_declaration
     167                            .dwattr $C$DW$35, DW_AT_external
     168                            .dwattr $C$DW$35, DW_AT_decl_file("C:/TI_CodeComposer/StellarisWare-LM3S1968/driverlib/sysctl.
     169                            .dwattr $C$DW$35, DW_AT_decl_line(0x24d)
     170                            .dwattr $C$DW$35, DW_AT_decl_column(0x0d)
     171                    $C$DW$36        .dwtag  DW_TAG_formal_parameter
     172                            .dwattr $C$DW$36, DW_AT_type(*$C$DW$T$13)
     173                            .dwendtag $C$DW$35
     174                    
     175                    
     176                    $C$DW$37        .dwtag  DW_TAG_subprogram, DW_AT_name("SysCtlClockGet")
     177                            .dwattr $C$DW$37, DW_AT_TI_symbol_name("SysCtlClockGet")
     178                            .dwattr $C$DW$37, DW_AT_type(*$C$DW$T$13)
     179                            .dwattr $C$DW$37, DW_AT_declaration
     180                            .dwattr $C$DW$37, DW_AT_external
     181                            .dwattr $C$DW$37, DW_AT_decl_file("C:/TI_CodeComposer/StellarisWare-LM3S1968/driverlib/sysctl.
     182                            .dwattr $C$DW$37, DW_AT_decl_line(0x268)
     183                            .dwattr $C$DW$37, DW_AT_decl_column(0x16)
     184 00000000                   .bss    g_ulSSIFlags,4,4
     185                    $C$DW$38        .dwtag  DW_TAG_variable, DW_AT_name("g_ulSSIFlags")
     186                            .dwattr $C$DW$38, DW_AT_TI_symbol_name("g_ulSSIFlags")
     187                            .dwattr $C$DW$38, DW_AT_type(*$C$DW$T$59)
     188                            .dwattr $C$DW$38, DW_AT_location[DW_OP_addr g_ulSSIFlags]
     189                            .dwattr $C$DW$38, DW_AT_decl_file("../Drivers/rit128x96x4.c")
     190                            .dwattr $C$DW$38, DW_AT_decl_line(0x3a)
     191                            .dwattr $C$DW$38, DW_AT_decl_column(0x1f)
     192 00000004                   .bss    g_pucBuffer,8,1
     193                    $C$DW$39        .dwtag  DW_TAG_variable, DW_AT_name("g_pucBuffer")
     194                            .dwattr $C$DW$39, DW_AT_TI_symbol_name("g_pucBuffer")
     195                            .dwattr $C$DW$39, DW_AT_type(*$C$DW$T$48)
     196                            .dwattr $C$DW$39, DW_AT_location[DW_OP_addr g_pucBuffer]
     197                            .dwattr $C$DW$39, DW_AT_decl_file("../Drivers/rit128x96x4.c")
     198                            .dwattr $C$DW$39, DW_AT_decl_line(0x43)
     199                            .dwattr $C$DW$39, DW_AT_decl_column(0x16)
     200 00000000                   .sect   ".const:.string"
     201                            .align  1
     202                            .elfsym g_pucRIT128x96x4VerticalInc,SYM_SIZE(4)
     203 00000000           g_pucRIT128x96x4VerticalInc:
     204 00000000 000000A0          .field  160,8                   ; g_pucRIT128x96x4VerticalInc[0] @ 0
     205 00000000 000056A0          .field  86,8                    ; g_pucRIT128x96x4VerticalInc[1] @ 8
     206                    
     207                    $C$DW$40        .dwtag  DW_TAG_variable, DW_AT_name("g_pucRIT128x96x4VerticalInc")
     208                            .dwattr $C$DW$40, DW_AT_TI_symbol_name("g_pucRIT128x96x4VerticalInc")
     209                            .dwattr $C$DW$40, DW_AT_type(*$C$DW$T$42)
     210                            .dwattr $C$DW$40, DW_AT_location[DW_OP_addr g_pucRIT128x96x4VerticalInc]
     211                            .dwattr $C$DW$40, DW_AT_decl_file("../Drivers/rit128x96x4.c")
     212                            .dwattr $C$DW$40, DW_AT_decl_line(0x65)
     213                            .dwattr $C$DW$40, DW_AT_decl_column(0x1c)
     214 00000002                   .sect   ".const:.string"
     215                            .align  1
     216                            .elfsym g_pucRIT128x96x4HorizontalInc,SYM_SIZE(4)
     217 00000002           g_pucRIT128x96x4HorizontalInc:
     218 00000000 00A056A0          .field  160,8                   ; g_pucRIT128x96x4HorizontalInc[0] @ 0
     219 00000000 52A056A0          .field  82,8                    ; g_pucRIT128x96x4HorizontalInc[1] @ 8
     220                    
TI ARM Assembler PC v5.0.4 Mon Apr 28 11:29:12 2014

Tools Copyright (c) 1996-2013 Texas Instruments Incorporated
rit128x96x4.asm                                                      PAGE    5

     221                    $C$DW$41        .dwtag  DW_TAG_variable, DW_AT_name("g_pucRIT128x96x4HorizontalInc")
     222                            .dwattr $C$DW$41, DW_AT_TI_symbol_name("g_pucRIT128x96x4HorizontalInc")
     223                            .dwattr $C$DW$41, DW_AT_type(*$C$DW$T$42)
     224                            .dwattr $C$DW$41, DW_AT_location[DW_OP_addr g_pucRIT128x96x4HorizontalInc]
     225                            .dwattr $C$DW$41, DW_AT_decl_file("../Drivers/rit128x96x4.c")
     226                            .dwattr $C$DW$41, DW_AT_decl_line(0x66)
     227                            .dwattr $C$DW$41, DW_AT_decl_column(0x1c)
     228 00000000                   .sect   ".const:g_pucFont"
     229                            .clink
     230                            .align  1
     231                            .elfsym g_pucFont,SYM_SIZE(480)
     232 00000000           g_pucFont:
     233 00000000 00000000          .field  0,8                     ; g_pucFont[0][0] @ 0
     234 00000000 00000000          .field  0,8                     ; g_pucFont[0][1] @ 8
     235 00000000 00000000          .field  0,8                     ; g_pucFont[0][2] @ 16
     236 00000000 00000000          .field  0,8                     ; g_pucFont[0][3] @ 24
     237 00000004 00000000          .field  0,8                     ; g_pucFont[0][4] @ 32
     238 00000004 00000000          .field  0,8                     ; g_pucFont[1][0] @ 40
     239 00000004 00000000          .field  0,8                     ; g_pucFont[1][1] @ 48
     240 00000004 4F000000          .field  79,8                    ; g_pucFont[1][2] @ 56
     241 00000008 00000000          .field  0,8                     ; g_pucFont[1][3] @ 64
     242 00000008 00000000          .field  0,8                     ; g_pucFont[1][4] @ 72
     243 00000008 00000000          .field  0,8                     ; g_pucFont[2][0] @ 80
     244 00000008 07000000          .field  7,8                     ; g_pucFont[2][1] @ 88
     245 0000000c 00000000          .field  0,8                     ; g_pucFont[2][2] @ 96
     246 0000000c 00000700          .field  7,8                     ; g_pucFont[2][3] @ 104
     247 0000000c 00000700          .field  0,8                     ; g_pucFont[2][4] @ 112
     248 0000000c 14000700          .field  20,8                    ; g_pucFont[3][0] @ 120
     249 00000010 0000007F          .field  127,8                   ; g_pucFont[3][1] @ 128
     250 00000010 0000147F          .field  20,8                    ; g_pucFont[3][2] @ 136
     251 00000010 007F147F          .field  127,8                   ; g_pucFont[3][3] @ 144
     252 00000010 147F147F          .field  20,8                    ; g_pucFont[3][4] @ 152
     253 00000014 00000024          .field  36,8                    ; g_pucFont[4][0] @ 160
     254 00000014 00002A24          .field  42,8                    ; g_pucFont[4][1] @ 168
     255 00000014 007F2A24          .field  127,8                   ; g_pucFont[4][2] @ 176
     256 00000014 2A7F2A24          .field  42,8                    ; g_pucFont[4][3] @ 184
     257 00000018 00000012          .field  18,8                    ; g_pucFont[4][4] @ 192
     258 00000018 00002312          .field  35,8                    ; g_pucFont[5][0] @ 200
     259 00000018 00132312          .field  19,8                    ; g_pucFont[5][1] @ 208
     260 00000018 08132312          .field  8,8                     ; g_pucFont[5][2] @ 216
     261 0000001c 00000064          .field  100,8                   ; g_pucFont[5][3] @ 224
     262 0000001c 00006264          .field  98,8                    ; g_pucFont[5][4] @ 232
     263 0000001c 00366264          .field  54,8                    ; g_pucFont[6][0] @ 240
     264 0000001c 49366264          .field  73,8                    ; g_pucFont[6][1] @ 248
     265 00000020 00000055          .field  85,8                    ; g_pucFont[6][2] @ 256
     266 00000020 00002255          .field  34,8                    ; g_pucFont[6][3] @ 264
     267 00000020 00502255          .field  80,8                    ; g_pucFont[6][4] @ 272
     268 00000020 00502255          .field  0,8                     ; g_pucFont[7][0] @ 280
     269 00000024 00000005          .field  5,8                     ; g_pucFont[7][1] @ 288
     270 00000024 00000305          .field  3,8                     ; g_pucFont[7][2] @ 296
     271 00000024 00000305          .field  0,8                     ; g_pucFont[7][3] @ 304
     272 00000024 00000305          .field  0,8                     ; g_pucFont[7][4] @ 312
     273 00000028 00000000          .field  0,8                     ; g_pucFont[8][0] @ 320
     274 00000028 00001C00          .field  28,8                    ; g_pucFont[8][1] @ 328
     275 00000028 00221C00          .field  34,8                    ; g_pucFont[8][2] @ 336
TI ARM Assembler PC v5.0.4 Mon Apr 28 11:29:12 2014

Tools Copyright (c) 1996-2013 Texas Instruments Incorporated
rit128x96x4.asm                                                      PAGE    6

     276 00000028 41221C00          .field  65,8                    ; g_pucFont[8][3] @ 344
     277 0000002c 00000000          .field  0,8                     ; g_pucFont[8][4] @ 352
     278 0000002c 00000000          .field  0,8                     ; g_pucFont[9][0] @ 360
     279 0000002c 00410000          .field  65,8                    ; g_pucFont[9][1] @ 368
     280 0000002c 22410000          .field  34,8                    ; g_pucFont[9][2] @ 376
     281 00000030 0000001C          .field  28,8                    ; g_pucFont[9][3] @ 384
     282 00000030 0000001C          .field  0,8                     ; g_pucFont[9][4] @ 392
     283 00000030 0014001C          .field  20,8                    ; g_pucFont[10][0] @ 400
     284 00000030 0814001C          .field  8,8                     ; g_pucFont[10][1] @ 408
     285 00000034 0000003E          .field  62,8                    ; g_pucFont[10][2] @ 416
     286 00000034 0000083E          .field  8,8                     ; g_pucFont[10][3] @ 424
     287 00000034 0014083E          .field  20,8                    ; g_pucFont[10][4] @ 432
     288 00000034 0814083E          .field  8,8                     ; g_pucFont[11][0] @ 440
     289 00000038 00000008          .field  8,8                     ; g_pucFont[11][1] @ 448
     290 00000038 00003E08          .field  62,8                    ; g_pucFont[11][2] @ 456
     291 00000038 00083E08          .field  8,8                     ; g_pucFont[11][3] @ 464
     292 00000038 08083E08          .field  8,8                     ; g_pucFont[11][4] @ 472
     293 0000003c 00000000          .field  0,8                     ; g_pucFont[12][0] @ 480
     294 0000003c 00005000          .field  80,8                    ; g_pucFont[12][1] @ 488
     295 0000003c 00305000          .field  48,8                    ; g_pucFont[12][2] @ 496
     296 0000003c 00305000          .field  0,8                     ; g_pucFont[12][3] @ 504
     297 00000040 00000000          .field  0,8                     ; g_pucFont[12][4] @ 512
     298 00000040 00000800          .field  8,8                     ; g_pucFont[13][0] @ 520
     299 00000040 00080800          .field  8,8                     ; g_pucFont[13][1] @ 528
     300 00000040 08080800          .field  8,8                     ; g_pucFont[13][2] @ 536
     301 00000044 00000008          .field  8,8                     ; g_pucFont[13][3] @ 544
     302 00000044 00000808          .field  8,8                     ; g_pucFont[13][4] @ 552
     303 00000044 00000808          .field  0,8                     ; g_pucFont[14][0] @ 560
     304 00000044 60000808          .field  96,8                    ; g_pucFont[14][1] @ 568
     305 00000048 00000060          .field  96,8                    ; g_pucFont[14][2] @ 576
     306 00000048 00000060          .field  0,8                     ; g_pucFont[14][3] @ 584
     307 00000048 00000060          .field  0,8                     ; g_pucFont[14][4] @ 592
     308 00000048 20000060          .field  32,8                    ; g_pucFont[15][0] @ 600
     309 0000004c 00000010          .field  16,8                    ; g_pucFont[15][1] @ 608
     310 0000004c 00000810          .field  8,8                     ; g_pucFont[15][2] @ 616
     311 0000004c 00040810          .field  4,8                     ; g_pucFont[15][3] @ 624
     312 0000004c 02040810          .field  2,8                     ; g_pucFont[15][4] @ 632
     313 00000050 0000003E          .field  62,8                    ; g_pucFont[16][0] @ 640
     314 00000050 0000513E          .field  81,8                    ; g_pucFont[16][1] @ 648
     315 00000050 0049513E          .field  73,8                    ; g_pucFont[16][2] @ 656
     316 00000050 4549513E          .field  69,8                    ; g_pucFont[16][3] @ 664
     317 00000054 0000003E          .field  62,8                    ; g_pucFont[16][4] @ 672
     318 00000054 0000003E          .field  0,8                     ; g_pucFont[17][0] @ 680
     319 00000054 0042003E          .field  66,8                    ; g_pucFont[17][1] @ 688
     320 00000054 7F42003E          .field  127,8                   ; g_pucFont[17][2] @ 696
     321 00000058 00000040          .field  64,8                    ; g_pucFont[17][3] @ 704
     322 00000058 00000040          .field  0,8                     ; g_pucFont[17][4] @ 712
     323 00000058 00420040          .field  66,8                    ; g_pucFont[18][0] @ 720
     324 00000058 61420040          .field  97,8                    ; g_pucFont[18][1] @ 728
     325 0000005c 00000051          .field  81,8                    ; g_pucFont[18][2] @ 736
     326 0000005c 00004951          .field  73,8                    ; g_pucFont[18][3] @ 744
     327 0000005c 00464951          .field  70,8                    ; g_pucFont[18][4] @ 752
     328 0000005c 21464951          .field  33,8                    ; g_pucFont[19][0] @ 760
     329 00000060 00000041          .field  65,8                    ; g_pucFont[19][1] @ 768
     330 00000060 00004541          .field  69,8                    ; g_pucFont[19][2] @ 776
TI ARM Assembler PC v5.0.4 Mon Apr 28 11:29:12 2014

Tools Copyright (c) 1996-2013 Texas Instruments Incorporated
rit128x96x4.asm                                                      PAGE    7

     331 00000060 004B4541          .field  75,8                    ; g_pucFont[19][3] @ 784
     332 00000060 314B4541          .field  49,8                    ; g_pucFont[19][4] @ 792
     333 00000064 00000018          .field  24,8                    ; g_pucFont[20][0] @ 800
     334 00000064 00001418          .field  20,8                    ; g_pucFont[20][1] @ 808
     335 00000064 00121418          .field  18,8                    ; g_pucFont[20][2] @ 816
     336 00000064 7F121418          .field  127,8                   ; g_pucFont[20][3] @ 824
     337 00000068 00000010          .field  16,8                    ; g_pucFont[20][4] @ 832
     338 00000068 00002710          .field  39,8                    ; g_pucFont[21][0] @ 840
     339 00000068 00452710          .field  69,8                    ; g_pucFont[21][1] @ 848
     340 00000068 45452710          .field  69,8                    ; g_pucFont[21][2] @ 856
     341 0000006c 00000045          .field  69,8                    ; g_pucFont[21][3] @ 864
     342 0000006c 00003945          .field  57,8                    ; g_pucFont[21][4] @ 872
     343 0000006c 003C3945          .field  60,8                    ; g_pucFont[22][0] @ 880
     344 0000006c 4A3C3945          .field  74,8                    ; g_pucFont[22][1] @ 888
     345 00000070 00000049          .field  73,8                    ; g_pucFont[22][2] @ 896
     346 00000070 00004949          .field  73,8                    ; g_pucFont[22][3] @ 904
     347 00000070 00304949          .field  48,8                    ; g_pucFont[22][4] @ 912
     348 00000070 01304949          .field  1,8                     ; g_pucFont[23][0] @ 920
     349 00000074 00000071          .field  113,8                   ; g_pucFont[23][1] @ 928
     350 00000074 00000971          .field  9,8                     ; g_pucFont[23][2] @ 936
     351 00000074 00050971          .field  5,8                     ; g_pucFont[23][3] @ 944
     352 00000074 03050971          .field  3,8                     ; g_pucFont[23][4] @ 952
     353 00000078 00000036          .field  54,8                    ; g_pucFont[24][0] @ 960
     354 00000078 00004936          .field  73,8                    ; g_pucFont[24][1] @ 968
     355 00000078 00494936          .field  73,8                    ; g_pucFont[24][2] @ 976
     356 00000078 49494936          .field  73,8                    ; g_pucFont[24][3] @ 984
     357 0000007c 00000036          .field  54,8                    ; g_pucFont[24][4] @ 992
     358 0000007c 00000636          .field  6,8                     ; g_pucFont[25][0] @ 1000
     359 0000007c 00490636          .field  73,8                    ; g_pucFont[25][1] @ 1008
     360 0000007c 49490636          .field  73,8                    ; g_pucFont[25][2] @ 1016
     361 00000080 00000029          .field  41,8                    ; g_pucFont[25][3] @ 1024
     362 00000080 00001E29          .field  30,8                    ; g_pucFont[25][4] @ 1032
     363 00000080 00001E29          .field  0,8                     ; g_pucFont[26][0] @ 1040
     364 00000080 36001E29          .field  54,8                    ; g_pucFont[26][1] @ 1048
     365 00000084 00000036          .field  54,8                    ; g_pucFont[26][2] @ 1056
     366 00000084 00000036          .field  0,8                     ; g_pucFont[26][3] @ 1064
     367 00000084 00000036          .field  0,8                     ; g_pucFont[26][4] @ 1072
     368 00000084 00000036          .field  0,8                     ; g_pucFont[27][0] @ 1080
     369 00000088 00000056          .field  86,8                    ; g_pucFont[27][1] @ 1088
     370 00000088 00003656          .field  54,8                    ; g_pucFont[27][2] @ 1096
     371 00000088 00003656          .field  0,8                     ; g_pucFont[27][3] @ 1104
     372 00000088 00003656          .field  0,8                     ; g_pucFont[27][4] @ 1112
     373 0000008c 00000008          .field  8,8                     ; g_pucFont[28][0] @ 1120
     374 0000008c 00001408          .field  20,8                    ; g_pucFont[28][1] @ 1128
     375 0000008c 00221408          .field  34,8                    ; g_pucFont[28][2] @ 1136
     376 0000008c 41221408          .field  65,8                    ; g_pucFont[28][3] @ 1144
     377 00000090 00000000          .field  0,8                     ; g_pucFont[28][4] @ 1152
     378 00000090 00001400          .field  20,8                    ; g_pucFont[29][0] @ 1160
     379 00000090 00141400          .field  20,8                    ; g_pucFont[29][1] @ 1168
     380 00000090 14141400          .field  20,8                    ; g_pucFont[29][2] @ 1176
     381 00000094 00000014          .field  20,8                    ; g_pucFont[29][3] @ 1184
     382 00000094 00001414          .field  20,8                    ; g_pucFont[29][4] @ 1192
     383 00000094 00001414          .field  0,8                     ; g_pucFont[30][0] @ 1200
     384 00000094 41001414          .field  65,8                    ; g_pucFont[30][1] @ 1208
     385 00000098 00000022          .field  34,8                    ; g_pucFont[30][2] @ 1216
TI ARM Assembler PC v5.0.4 Mon Apr 28 11:29:12 2014

Tools Copyright (c) 1996-2013 Texas Instruments Incorporated
rit128x96x4.asm                                                      PAGE    8

     386 00000098 00001422          .field  20,8                    ; g_pucFont[30][3] @ 1224
     387 00000098 00081422          .field  8,8                     ; g_pucFont[30][4] @ 1232
     388 00000098 02081422          .field  2,8                     ; g_pucFont[31][0] @ 1240
     389 0000009c 00000001          .field  1,8                     ; g_pucFont[31][1] @ 1248
     390 0000009c 00005101          .field  81,8                    ; g_pucFont[31][2] @ 1256
     391 0000009c 00095101          .field  9,8                     ; g_pucFont[31][3] @ 1264
     392 0000009c 06095101          .field  6,8                     ; g_pucFont[31][4] @ 1272
     393 000000a0 00000032          .field  50,8                    ; g_pucFont[32][0] @ 1280
     394 000000a0 00004932          .field  73,8                    ; g_pucFont[32][1] @ 1288
     395 000000a0 00794932          .field  121,8                   ; g_pucFont[32][2] @ 1296
     396 000000a0 41794932          .field  65,8                    ; g_pucFont[32][3] @ 1304
     397 000000a4 0000003E          .field  62,8                    ; g_pucFont[32][4] @ 1312
     398 000000a4 00007E3E          .field  126,8                   ; g_pucFont[33][0] @ 1320
     399 000000a4 00117E3E          .field  17,8                    ; g_pucFont[33][1] @ 1328
     400 000000a4 11117E3E          .field  17,8                    ; g_pucFont[33][2] @ 1336
     401 000000a8 00000011          .field  17,8                    ; g_pucFont[33][3] @ 1344
     402 000000a8 00007E11          .field  126,8                   ; g_pucFont[33][4] @ 1352
     403 000000a8 007F7E11          .field  127,8                   ; g_pucFont[34][0] @ 1360
     404 000000a8 497F7E11          .field  73,8                    ; g_pucFont[34][1] @ 1368
     405 000000ac 00000049          .field  73,8                    ; g_pucFont[34][2] @ 1376
     406 000000ac 00004949          .field  73,8                    ; g_pucFont[34][3] @ 1384
     407 000000ac 00364949          .field  54,8                    ; g_pucFont[34][4] @ 1392
     408 000000ac 3E364949          .field  62,8                    ; g_pucFont[35][0] @ 1400
     409 000000b0 00000041          .field  65,8                    ; g_pucFont[35][1] @ 1408
     410 000000b0 00004141          .field  65,8                    ; g_pucFont[35][2] @ 1416
     411 000000b0 00414141          .field  65,8                    ; g_pucFont[35][3] @ 1424
     412 000000b0 22414141          .field  34,8                    ; g_pucFont[35][4] @ 1432
     413 000000b4 0000007F          .field  127,8                   ; g_pucFont[36][0] @ 1440
     414 000000b4 0000417F          .field  65,8                    ; g_pucFont[36][1] @ 1448
     415 000000b4 0041417F          .field  65,8                    ; g_pucFont[36][2] @ 1456
     416 000000b4 2241417F          .field  34,8                    ; g_pucFont[36][3] @ 1464
     417 000000b8 0000001C          .field  28,8                    ; g_pucFont[36][4] @ 1472
     418 000000b8 00007F1C          .field  127,8                   ; g_pucFont[37][0] @ 1480
     419 000000b8 00497F1C          .field  73,8                    ; g_pucFont[37][1] @ 1488
     420 000000b8 49497F1C          .field  73,8                    ; g_pucFont[37][2] @ 1496
     421 000000bc 00000049          .field  73,8                    ; g_pucFont[37][3] @ 1504
     422 000000bc 00004149          .field  65,8                    ; g_pucFont[37][4] @ 1512
     423 000000bc 007F4149          .field  127,8                   ; g_pucFont[38][0] @ 1520
     424 000000bc 097F4149          .field  9,8                     ; g_pucFont[38][1] @ 1528
     425 000000c0 00000009          .field  9,8                     ; g_pucFont[38][2] @ 1536
     426 000000c0 00000909          .field  9,8                     ; g_pucFont[38][3] @ 1544
     427 000000c0 00010909          .field  1,8                     ; g_pucFont[38][4] @ 1552
     428 000000c0 3E010909          .field  62,8                    ; g_pucFont[39][0] @ 1560
     429 000000c4 00000041          .field  65,8                    ; g_pucFont[39][1] @ 1568
     430 000000c4 00004941          .field  73,8                    ; g_pucFont[39][2] @ 1576
     431 000000c4 00494941          .field  73,8                    ; g_pucFont[39][3] @ 1584
     432 000000c4 7A494941          .field  122,8                   ; g_pucFont[39][4] @ 1592
     433 000000c8 0000007F          .field  127,8                   ; g_pucFont[40][0] @ 1600
     434 000000c8 0000087F          .field  8,8                     ; g_pucFont[40][1] @ 1608
     435 000000c8 0008087F          .field  8,8                     ; g_pucFont[40][2] @ 1616
     436 000000c8 0808087F          .field  8,8                     ; g_pucFont[40][3] @ 1624
     437 000000cc 0000007F          .field  127,8                   ; g_pucFont[40][4] @ 1632
     438 000000cc 0000007F          .field  0,8                     ; g_pucFont[41][0] @ 1640
     439 000000cc 0041007F          .field  65,8                    ; g_pucFont[41][1] @ 1648
     440 000000cc 7F41007F          .field  127,8                   ; g_pucFont[41][2] @ 1656
TI ARM Assembler PC v5.0.4 Mon Apr 28 11:29:12 2014

Tools Copyright (c) 1996-2013 Texas Instruments Incorporated
rit128x96x4.asm                                                      PAGE    9

     441 000000d0 00000041          .field  65,8                    ; g_pucFont[41][3] @ 1664
     442 000000d0 00000041          .field  0,8                     ; g_pucFont[41][4] @ 1672
     443 000000d0 00200041          .field  32,8                    ; g_pucFont[42][0] @ 1680
     444 000000d0 40200041          .field  64,8                    ; g_pucFont[42][1] @ 1688
     445 000000d4 00000041          .field  65,8                    ; g_pucFont[42][2] @ 1696
     446 000000d4 00003F41          .field  63,8                    ; g_pucFont[42][3] @ 1704
     447 000000d4 00013F41          .field  1,8                     ; g_pucFont[42][4] @ 1712
     448 000000d4 7F013F41          .field  127,8                   ; g_pucFont[43][0] @ 1720
     449 000000d8 00000008          .field  8,8                     ; g_pucFont[43][1] @ 1728
     450 000000d8 00001408          .field  20,8                    ; g_pucFont[43][2] @ 1736
     451 000000d8 00221408          .field  34,8                    ; g_pucFont[43][3] @ 1744
     452 000000d8 41221408          .field  65,8                    ; g_pucFont[43][4] @ 1752
     453 000000dc 0000007F          .field  127,8                   ; g_pucFont[44][0] @ 1760
     454 000000dc 0000407F          .field  64,8                    ; g_pucFont[44][1] @ 1768
     455 000000dc 0040407F          .field  64,8                    ; g_pucFont[44][2] @ 1776
     456 000000dc 4040407F          .field  64,8                    ; g_pucFont[44][3] @ 1784
     457 000000e0 00000040          .field  64,8                    ; g_pucFont[44][4] @ 1792
     458 000000e0 00007F40          .field  127,8                   ; g_pucFont[45][0] @ 1800
     459 000000e0 00027F40          .field  2,8                     ; g_pucFont[45][1] @ 1808
     460 000000e0 0C027F40          .field  12,8                    ; g_pucFont[45][2] @ 1816
     461 000000e4 00000002          .field  2,8                     ; g_pucFont[45][3] @ 1824
     462 000000e4 00007F02          .field  127,8                   ; g_pucFont[45][4] @ 1832
     463 000000e4 007F7F02          .field  127,8                   ; g_pucFont[46][0] @ 1840
     464 000000e4 047F7F02          .field  4,8                     ; g_pucFont[46][1] @ 1848
     465 000000e8 00000008          .field  8,8                     ; g_pucFont[46][2] @ 1856
     466 000000e8 00001008          .field  16,8                    ; g_pucFont[46][3] @ 1864
     467 000000e8 007F1008          .field  127,8                   ; g_pucFont[46][4] @ 1872
     468 000000e8 3E7F1008          .field  62,8                    ; g_pucFont[47][0] @ 1880
     469 000000ec 00000041          .field  65,8                    ; g_pucFont[47][1] @ 1888
     470 000000ec 00004141          .field  65,8                    ; g_pucFont[47][2] @ 1896
     471 000000ec 00414141          .field  65,8                    ; g_pucFont[47][3] @ 1904
     472 000000ec 3E414141          .field  62,8                    ; g_pucFont[47][4] @ 1912
     473 000000f0 0000007F          .field  127,8                   ; g_pucFont[48][0] @ 1920
     474 000000f0 0000097F          .field  9,8                     ; g_pucFont[48][1] @ 1928
     475 000000f0 0009097F          .field  9,8                     ; g_pucFont[48][2] @ 1936
     476 000000f0 0909097F          .field  9,8                     ; g_pucFont[48][3] @ 1944
     477 000000f4 00000006          .field  6,8                     ; g_pucFont[48][4] @ 1952
     478 000000f4 00003E06          .field  62,8                    ; g_pucFont[49][0] @ 1960
     479 000000f4 00413E06          .field  65,8                    ; g_pucFont[49][1] @ 1968
     480 000000f4 51413E06          .field  81,8                    ; g_pucFont[49][2] @ 1976
     481 000000f8 00000021          .field  33,8                    ; g_pucFont[49][3] @ 1984
     482 000000f8 00005E21          .field  94,8                    ; g_pucFont[49][4] @ 1992
     483 000000f8 007F5E21          .field  127,8                   ; g_pucFont[50][0] @ 2000
     484 000000f8 097F5E21          .field  9,8                     ; g_pucFont[50][1] @ 2008
     485 000000fc 00000019          .field  25,8                    ; g_pucFont[50][2] @ 2016
     486 000000fc 00002919          .field  41,8                    ; g_pucFont[50][3] @ 2024
     487 000000fc 00462919          .field  70,8                    ; g_pucFont[50][4] @ 2032
     488 000000fc 46462919          .field  70,8                    ; g_pucFont[51][0] @ 2040
     489 00000100 00000049          .field  73,8                    ; g_pucFont[51][1] @ 2048
     490 00000100 00004949          .field  73,8                    ; g_pucFont[51][2] @ 2056
     491 00000100 00494949          .field  73,8                    ; g_pucFont[51][3] @ 2064
     492 00000100 31494949          .field  49,8                    ; g_pucFont[51][4] @ 2072
     493 00000104 00000001          .field  1,8                     ; g_pucFont[52][0] @ 2080
     494 00000104 00000101          .field  1,8                     ; g_pucFont[52][1] @ 2088
     495 00000104 007F0101          .field  127,8                   ; g_pucFont[52][2] @ 2096
TI ARM Assembler PC v5.0.4 Mon Apr 28 11:29:12 2014

Tools Copyright (c) 1996-2013 Texas Instruments Incorporated
rit128x96x4.asm                                                      PAGE   10

     496 00000104 017F0101          .field  1,8                     ; g_pucFont[52][3] @ 2104
     497 00000108 00000001          .field  1,8                     ; g_pucFont[52][4] @ 2112
     498 00000108 00003F01          .field  63,8                    ; g_pucFont[53][0] @ 2120
     499 00000108 00403F01          .field  64,8                    ; g_pucFont[53][1] @ 2128
     500 00000108 40403F01          .field  64,8                    ; g_pucFont[53][2] @ 2136
     501 0000010c 00000040          .field  64,8                    ; g_pucFont[53][3] @ 2144
     502 0000010c 00003F40          .field  63,8                    ; g_pucFont[53][4] @ 2152
     503 0000010c 001F3F40          .field  31,8                    ; g_pucFont[54][0] @ 2160
     504 0000010c 201F3F40          .field  32,8                    ; g_pucFont[54][1] @ 2168
     505 00000110 00000040          .field  64,8                    ; g_pucFont[54][2] @ 2176
     506 00000110 00002040          .field  32,8                    ; g_pucFont[54][3] @ 2184
     507 00000110 001F2040          .field  31,8                    ; g_pucFont[54][4] @ 2192
     508 00000110 3F1F2040          .field  63,8                    ; g_pucFont[55][0] @ 2200
     509 00000114 00000040          .field  64,8                    ; g_pucFont[55][1] @ 2208
     510 00000114 00003840          .field  56,8                    ; g_pucFont[55][2] @ 2216
     511 00000114 00403840          .field  64,8                    ; g_pucFont[55][3] @ 2224
     512 00000114 3F403840          .field  63,8                    ; g_pucFont[55][4] @ 2232
     513 00000118 00000063          .field  99,8                    ; g_pucFont[56][0] @ 2240
     514 00000118 00001463          .field  20,8                    ; g_pucFont[56][1] @ 2248
     515 00000118 00081463          .field  8,8                     ; g_pucFont[56][2] @ 2256
     516 00000118 14081463          .field  20,8                    ; g_pucFont[56][3] @ 2264
     517 0000011c 00000063          .field  99,8                    ; g_pucFont[56][4] @ 2272
     518 0000011c 00000763          .field  7,8                     ; g_pucFont[57][0] @ 2280
     519 0000011c 00080763          .field  8,8                     ; g_pucFont[57][1] @ 2288
     520 0000011c 70080763          .field  112,8                   ; g_pucFont[57][2] @ 2296
     521 00000120 00000008          .field  8,8                     ; g_pucFont[57][3] @ 2304
     522 00000120 00000708          .field  7,8                     ; g_pucFont[57][4] @ 2312
     523 00000120 00610708          .field  97,8                    ; g_pucFont[58][0] @ 2320
     524 00000120 51610708          .field  81,8                    ; g_pucFont[58][1] @ 2328
     525 00000124 00000049          .field  73,8                    ; g_pucFont[58][2] @ 2336
     526 00000124 00004549          .field  69,8                    ; g_pucFont[58][3] @ 2344
     527 00000124 00434549          .field  67,8                    ; g_pucFont[58][4] @ 2352
     528 00000124 00434549          .field  0,8                     ; g_pucFont[59][0] @ 2360
     529 00000128 0000007F          .field  127,8                   ; g_pucFont[59][1] @ 2368
     530 00000128 0000417F          .field  65,8                    ; g_pucFont[59][2] @ 2376
     531 00000128 0041417F          .field  65,8                    ; g_pucFont[59][3] @ 2384
     532 00000128 0041417F          .field  0,8                     ; g_pucFont[59][4] @ 2392
     533 0000012c 00000002          .field  2,8                     ; g_pucFont[60][0] @ 2400
     534 0000012c 00000402          .field  4,8                     ; g_pucFont[60][1] @ 2408
     535 0000012c 00080402          .field  8,8                     ; g_pucFont[60][2] @ 2416
     536 0000012c 10080402          .field  16,8                    ; g_pucFont[60][3] @ 2424
     537 00000130 00000020          .field  32,8                    ; g_pucFont[60][4] @ 2432
     538 00000130 00000020          .field  0,8                     ; g_pucFont[61][0] @ 2440
     539 00000130 00410020          .field  65,8                    ; g_pucFont[61][1] @ 2448
     540 00000130 41410020          .field  65,8                    ; g_pucFont[61][2] @ 2456
     541 00000134 0000007F          .field  127,8                   ; g_pucFont[61][3] @ 2464
     542 00000134 0000007F          .field  0,8                     ; g_pucFont[61][4] @ 2472
     543 00000134 0004007F          .field  4,8                     ; g_pucFont[62][0] @ 2480
     544 00000134 0204007F          .field  2,8                     ; g_pucFont[62][1] @ 2488
     545 00000138 00000001          .field  1,8                     ; g_pucFont[62][2] @ 2496
     546 00000138 00000201          .field  2,8                     ; g_pucFont[62][3] @ 2504
     547 00000138 00040201          .field  4,8                     ; g_pucFont[62][4] @ 2512
     548 00000138 40040201          .field  64,8                    ; g_pucFont[63][0] @ 2520
     549 0000013c 00000040          .field  64,8                    ; g_pucFont[63][1] @ 2528
     550 0000013c 00004040          .field  64,8                    ; g_pucFont[63][2] @ 2536
TI ARM Assembler PC v5.0.4 Mon Apr 28 11:29:12 2014

Tools Copyright (c) 1996-2013 Texas Instruments Incorporated
rit128x96x4.asm                                                      PAGE   11

     551 0000013c 00404040          .field  64,8                    ; g_pucFont[63][3] @ 2544
     552 0000013c 40404040          .field  64,8                    ; g_pucFont[63][4] @ 2552
     553 00000140 00000000          .field  0,8                     ; g_pucFont[64][0] @ 2560
     554 00000140 00000100          .field  1,8                     ; g_pucFont[64][1] @ 2568
     555 00000140 00020100          .field  2,8                     ; g_pucFont[64][2] @ 2576
     556 00000140 04020100          .field  4,8                     ; g_pucFont[64][3] @ 2584
     557 00000144 00000000          .field  0,8                     ; g_pucFont[64][4] @ 2592
     558 00000144 00002000          .field  32,8                    ; g_pucFont[65][0] @ 2600
     559 00000144 00542000          .field  84,8                    ; g_pucFont[65][1] @ 2608
     560 00000144 54542000          .field  84,8                    ; g_pucFont[65][2] @ 2616
     561 00000148 00000054          .field  84,8                    ; g_pucFont[65][3] @ 2624
     562 00000148 00007854          .field  120,8                   ; g_pucFont[65][4] @ 2632
     563 00000148 007F7854          .field  127,8                   ; g_pucFont[66][0] @ 2640
     564 00000148 487F7854          .field  72,8                    ; g_pucFont[66][1] @ 2648
     565 0000014c 00000044          .field  68,8                    ; g_pucFont[66][2] @ 2656
     566 0000014c 00004444          .field  68,8                    ; g_pucFont[66][3] @ 2664
     567 0000014c 00384444          .field  56,8                    ; g_pucFont[66][4] @ 2672
     568 0000014c 38384444          .field  56,8                    ; g_pucFont[67][0] @ 2680
     569 00000150 00000044          .field  68,8                    ; g_pucFont[67][1] @ 2688
     570 00000150 00004444          .field  68,8                    ; g_pucFont[67][2] @ 2696
     571 00000150 00444444          .field  68,8                    ; g_pucFont[67][3] @ 2704
     572 00000150 20444444          .field  32,8                    ; g_pucFont[67][4] @ 2712
     573 00000154 00000038          .field  56,8                    ; g_pucFont[68][0] @ 2720
     574 00000154 00004438          .field  68,8                    ; g_pucFont[68][1] @ 2728
     575 00000154 00444438          .field  68,8                    ; g_pucFont[68][2] @ 2736
     576 00000154 48444438          .field  72,8                    ; g_pucFont[68][3] @ 2744
     577 00000158 0000007F          .field  127,8                   ; g_pucFont[68][4] @ 2752
     578 00000158 0000387F          .field  56,8                    ; g_pucFont[69][0] @ 2760
     579 00000158 0054387F          .field  84,8                    ; g_pucFont[69][1] @ 2768
     580 00000158 5454387F          .field  84,8                    ; g_pucFont[69][2] @ 2776
     581 0000015c 00000054          .field  84,8                    ; g_pucFont[69][3] @ 2784
     582 0000015c 00001854          .field  24,8                    ; g_pucFont[69][4] @ 2792
     583 0000015c 00081854          .field  8,8                     ; g_pucFont[70][0] @ 2800
     584 0000015c 7E081854          .field  126,8                   ; g_pucFont[70][1] @ 2808
     585 00000160 00000009          .field  9,8                     ; g_pucFont[70][2] @ 2816
     586 00000160 00000109          .field  1,8                     ; g_pucFont[70][3] @ 2824
     587 00000160 00020109          .field  2,8                     ; g_pucFont[70][4] @ 2832
     588 00000160 0C020109          .field  12,8                    ; g_pucFont[71][0] @ 2840
     589 00000164 00000052          .field  82,8                    ; g_pucFont[71][1] @ 2848
     590 00000164 00005252          .field  82,8                    ; g_pucFont[71][2] @ 2856
     591 00000164 00525252          .field  82,8                    ; g_pucFont[71][3] @ 2864
     592 00000164 3E525252          .field  62,8                    ; g_pucFont[71][4] @ 2872
     593 00000168 0000007F          .field  127,8                   ; g_pucFont[72][0] @ 2880
     594 00000168 0000087F          .field  8,8                     ; g_pucFont[72][1] @ 2888
     595 00000168 0004087F          .field  4,8                     ; g_pucFont[72][2] @ 2896
     596 00000168 0404087F          .field  4,8                     ; g_pucFont[72][3] @ 2904
     597 0000016c 00000078          .field  120,8                   ; g_pucFont[72][4] @ 2912
     598 0000016c 00000078          .field  0,8                     ; g_pucFont[73][0] @ 2920
     599 0000016c 00440078          .field  68,8                    ; g_pucFont[73][1] @ 2928
     600 0000016c 7D440078          .field  125,8                   ; g_pucFont[73][2] @ 2936
     601 00000170 00000040          .field  64,8                    ; g_pucFont[73][3] @ 2944
     602 00000170 00000040          .field  0,8                     ; g_pucFont[73][4] @ 2952
     603 00000170 00200040          .field  32,8                    ; g_pucFont[74][0] @ 2960
     604 00000170 40200040          .field  64,8                    ; g_pucFont[74][1] @ 2968
     605 00000174 00000044          .field  68,8                    ; g_pucFont[74][2] @ 2976
TI ARM Assembler PC v5.0.4 Mon Apr 28 11:29:12 2014

Tools Copyright (c) 1996-2013 Texas Instruments Incorporated
rit128x96x4.asm                                                      PAGE   12

     606 00000174 00003D44          .field  61,8                    ; g_pucFont[74][3] @ 2984
     607 00000174 00003D44          .field  0,8                     ; g_pucFont[74][4] @ 2992
     608 00000174 7F003D44          .field  127,8                   ; g_pucFont[75][0] @ 3000
     609 00000178 00000010          .field  16,8                    ; g_pucFont[75][1] @ 3008
     610 00000178 00002810          .field  40,8                    ; g_pucFont[75][2] @ 3016
     611 00000178 00442810          .field  68,8                    ; g_pucFont[75][3] @ 3024
     612 00000178 00442810          .field  0,8                     ; g_pucFont[75][4] @ 3032
     613 0000017c 00000000          .field  0,8                     ; g_pucFont[76][0] @ 3040
     614 0000017c 00004100          .field  65,8                    ; g_pucFont[76][1] @ 3048
     615 0000017c 007F4100          .field  127,8                   ; g_pucFont[76][2] @ 3056
     616 0000017c 407F4100          .field  64,8                    ; g_pucFont[76][3] @ 3064
     617 00000180 00000000          .field  0,8                     ; g_pucFont[76][4] @ 3072
     618 00000180 00007C00          .field  124,8                   ; g_pucFont[77][0] @ 3080
     619 00000180 00047C00          .field  4,8                     ; g_pucFont[77][1] @ 3088
     620 00000180 18047C00          .field  24,8                    ; g_pucFont[77][2] @ 3096
     621 00000184 00000004          .field  4,8                     ; g_pucFont[77][3] @ 3104
     622 00000184 00007804          .field  120,8                   ; g_pucFont[77][4] @ 3112
     623 00000184 007C7804          .field  124,8                   ; g_pucFont[78][0] @ 3120
     624 00000184 087C7804          .field  8,8                     ; g_pucFont[78][1] @ 3128
     625 00000188 00000004          .field  4,8                     ; g_pucFont[78][2] @ 3136
     626 00000188 00000404          .field  4,8                     ; g_pucFont[78][3] @ 3144
     627 00000188 00780404          .field  120,8                   ; g_pucFont[78][4] @ 3152
     628 00000188 38780404          .field  56,8                    ; g_pucFont[79][0] @ 3160
     629 0000018c 00000044          .field  68,8                    ; g_pucFont[79][1] @ 3168
     630 0000018c 00004444          .field  68,8                    ; g_pucFont[79][2] @ 3176
     631 0000018c 00444444          .field  68,8                    ; g_pucFont[79][3] @ 3184
     632 0000018c 38444444          .field  56,8                    ; g_pucFont[79][4] @ 3192
     633 00000190 0000007C          .field  124,8                   ; g_pucFont[80][0] @ 3200
     634 00000190 0000147C          .field  20,8                    ; g_pucFont[80][1] @ 3208
     635 00000190 0014147C          .field  20,8                    ; g_pucFont[80][2] @ 3216
     636 00000190 1414147C          .field  20,8                    ; g_pucFont[80][3] @ 3224
     637 00000194 00000008          .field  8,8                     ; g_pucFont[80][4] @ 3232
     638 00000194 00000808          .field  8,8                     ; g_pucFont[81][0] @ 3240
     639 00000194 00140808          .field  20,8                    ; g_pucFont[81][1] @ 3248
     640 00000194 14140808          .field  20,8                    ; g_pucFont[81][2] @ 3256
     641 00000198 00000018          .field  24,8                    ; g_pucFont[81][3] @ 3264
     642 00000198 00007C18          .field  124,8                   ; g_pucFont[81][4] @ 3272
     643 00000198 007C7C18          .field  124,8                   ; g_pucFont[82][0] @ 3280
     644 00000198 087C7C18          .field  8,8                     ; g_pucFont[82][1] @ 3288
     645 0000019c 00000004          .field  4,8                     ; g_pucFont[82][2] @ 3296
     646 0000019c 00000404          .field  4,8                     ; g_pucFont[82][3] @ 3304
     647 0000019c 00080404          .field  8,8                     ; g_pucFont[82][4] @ 3312
     648 0000019c 48080404          .field  72,8                    ; g_pucFont[83][0] @ 3320
     649 000001a0 00000054          .field  84,8                    ; g_pucFont[83][1] @ 3328
     650 000001a0 00005454          .field  84,8                    ; g_pucFont[83][2] @ 3336
     651 000001a0 00545454          .field  84,8                    ; g_pucFont[83][3] @ 3344
     652 000001a0 20545454          .field  32,8                    ; g_pucFont[83][4] @ 3352
     653 000001a4 00000004          .field  4,8                     ; g_pucFont[84][0] @ 3360
     654 000001a4 00003F04          .field  63,8                    ; g_pucFont[84][1] @ 3368
     655 000001a4 00443F04          .field  68,8                    ; g_pucFont[84][2] @ 3376
     656 000001a4 40443F04          .field  64,8                    ; g_pucFont[84][3] @ 3384
     657 000001a8 00000020          .field  32,8                    ; g_pucFont[84][4] @ 3392
     658 000001a8 00003C20          .field  60,8                    ; g_pucFont[85][0] @ 3400
     659 000001a8 00403C20          .field  64,8                    ; g_pucFont[85][1] @ 3408
     660 000001a8 40403C20          .field  64,8                    ; g_pucFont[85][2] @ 3416
TI ARM Assembler PC v5.0.4 Mon Apr 28 11:29:12 2014

Tools Copyright (c) 1996-2013 Texas Instruments Incorporated
rit128x96x4.asm                                                      PAGE   13

     661 000001ac 00000020          .field  32,8                    ; g_pucFont[85][3] @ 3424
     662 000001ac 00007C20          .field  124,8                   ; g_pucFont[85][4] @ 3432
     663 000001ac 001C7C20          .field  28,8                    ; g_pucFont[86][0] @ 3440
     664 000001ac 201C7C20          .field  32,8                    ; g_pucFont[86][1] @ 3448
     665 000001b0 00000040          .field  64,8                    ; g_pucFont[86][2] @ 3456
     666 000001b0 00002040          .field  32,8                    ; g_pucFont[86][3] @ 3464
     667 000001b0 001C2040          .field  28,8                    ; g_pucFont[86][4] @ 3472
     668 000001b0 3C1C2040          .field  60,8                    ; g_pucFont[87][0] @ 3480
     669 000001b4 00000040          .field  64,8                    ; g_pucFont[87][1] @ 3488
     670 000001b4 00003040          .field  48,8                    ; g_pucFont[87][2] @ 3496
     671 000001b4 00403040          .field  64,8                    ; g_pucFont[87][3] @ 3504
     672 000001b4 3C403040          .field  60,8                    ; g_pucFont[87][4] @ 3512
     673 000001b8 00000044          .field  68,8                    ; g_pucFont[88][0] @ 3520
     674 000001b8 00002844          .field  40,8                    ; g_pucFont[88][1] @ 3528
     675 000001b8 00102844          .field  16,8                    ; g_pucFont[88][2] @ 3536
     676 000001b8 28102844          .field  40,8                    ; g_pucFont[88][3] @ 3544
     677 000001bc 00000044          .field  68,8                    ; g_pucFont[88][4] @ 3552
     678 000001bc 00000C44          .field  12,8                    ; g_pucFont[89][0] @ 3560
     679 000001bc 00500C44          .field  80,8                    ; g_pucFont[89][1] @ 3568
     680 000001bc 50500C44          .field  80,8                    ; g_pucFont[89][2] @ 3576
     681 000001c0 00000050          .field  80,8                    ; g_pucFont[89][3] @ 3584
     682 000001c0 00003C50          .field  60,8                    ; g_pucFont[89][4] @ 3592
     683 000001c0 00443C50          .field  68,8                    ; g_pucFont[90][0] @ 3600
     684 000001c0 64443C50          .field  100,8                   ; g_pucFont[90][1] @ 3608
     685 000001c4 00000054          .field  84,8                    ; g_pucFont[90][2] @ 3616
     686 000001c4 00004C54          .field  76,8                    ; g_pucFont[90][3] @ 3624
     687 000001c4 00444C54          .field  68,8                    ; g_pucFont[90][4] @ 3632
     688 000001c4 00444C54          .field  0,8                     ; g_pucFont[91][0] @ 3640
     689 000001c8 00000008          .field  8,8                     ; g_pucFont[91][1] @ 3648
     690 000001c8 00003608          .field  54,8                    ; g_pucFont[91][2] @ 3656
     691 000001c8 00413608          .field  65,8                    ; g_pucFont[91][3] @ 3664
     692 000001c8 00413608          .field  0,8                     ; g_pucFont[91][4] @ 3672
     693 000001cc 00000000          .field  0,8                     ; g_pucFont[92][0] @ 3680
     694 000001cc 00000000          .field  0,8                     ; g_pucFont[92][1] @ 3688
     695 000001cc 007F0000          .field  127,8                   ; g_pucFont[92][2] @ 3696
     696 000001cc 007F0000          .field  0,8                     ; g_pucFont[92][3] @ 3704
     697 000001d0 00000000          .field  0,8                     ; g_pucFont[92][4] @ 3712
     698 000001d0 00000000          .field  0,8                     ; g_pucFont[93][0] @ 3720
     699 000001d0 00410000          .field  65,8                    ; g_pucFont[93][1] @ 3728
     700 000001d0 36410000          .field  54,8                    ; g_pucFont[93][2] @ 3736
     701 000001d4 00000008          .field  8,8                     ; g_pucFont[93][3] @ 3744
     702 000001d4 00000008          .field  0,8                     ; g_pucFont[93][4] @ 3752
     703 000001d4 00020008          .field  2,8                     ; g_pucFont[94][0] @ 3760
     704 000001d4 01020008          .field  1,8                     ; g_pucFont[94][1] @ 3768
     705 000001d8 00000002          .field  2,8                     ; g_pucFont[94][2] @ 3776
     706 000001d8 00000402          .field  4,8                     ; g_pucFont[94][3] @ 3784
     707 000001d8 00020402          .field  2,8                     ; g_pucFont[94][4] @ 3792
     708 000001d8 00020402          .field  0,8                     ; g_pucFont[95][0] @ 3800
     709 000001dc 00000000          .field  0,8                     ; g_pucFont[95][1] @ 3808
     710 000001dc 00000000          .field  0,8                     ; g_pucFont[95][2] @ 3816
     711 000001dc 00000000          .field  0,8                     ; g_pucFont[95][3] @ 3824
     712 000001dc 00000000          .field  0,8                     ; g_pucFont[95][4] @ 3832
     713                    
     714                    $C$DW$42        .dwtag  DW_TAG_variable, DW_AT_name("g_pucFont")
     715                            .dwattr $C$DW$42, DW_AT_TI_symbol_name("g_pucFont")
TI ARM Assembler PC v5.0.4 Mon Apr 28 11:29:12 2014

Tools Copyright (c) 1996-2013 Texas Instruments Incorporated
rit128x96x4.asm                                                      PAGE   14

     716                            .dwattr $C$DW$42, DW_AT_type(*$C$DW$T$44)
     717                            .dwattr $C$DW$42, DW_AT_location[DW_OP_addr g_pucFont]
     718                            .dwattr $C$DW$42, DW_AT_decl_file("../Drivers/rit128x96x4.c")
     719                            .dwattr $C$DW$42, DW_AT_decl_line(0x74)
     720                            .dwattr $C$DW$42, DW_AT_decl_column(0x1c)
     721 00000000                   .sect   ".const:.string:g_pucRIT128x96x4Init"
     722                            .clink
     723                            .align  1
     724                            .elfsym g_pucRIT128x96x4Init,SYM_SIZE(80)
     725 00000000           g_pucRIT128x96x4Init:
     726 00000000 00000003          .field  3,8                     ; g_pucRIT128x96x4Init[0] @ 0
     727 00000000 0000FD03          .field  253,8                   ; g_pucRIT128x96x4Init[1] @ 8
     728 00000000 0012FD03          .field  18,8                    ; g_pucRIT128x96x4Init[2] @ 16
     729 00000000 E312FD03          .field  227,8                   ; g_pucRIT128x96x4Init[3] @ 24
     730 00000004 00000002          .field  2,8                     ; g_pucRIT128x96x4Init[4] @ 32
     731 00000004 0000AE02          .field  174,8                   ; g_pucRIT128x96x4Init[5] @ 40
     732 00000004 00E3AE02          .field  227,8                   ; g_pucRIT128x96x4Init[6] @ 48
     733 00000004 03E3AE02          .field  3,8                     ; g_pucRIT128x96x4Init[7] @ 56
     734 00000008 00000094          .field  148,8                   ; g_pucRIT128x96x4Init[8] @ 64
     735 00000008 00000094          .field  0,8                     ; g_pucRIT128x96x4Init[9] @ 72
     736 00000008 00E30094          .field  227,8                   ; g_pucRIT128x96x4Init[10] @ 80
     737 00000008 03E30094          .field  3,8                     ; g_pucRIT128x96x4Init[11] @ 88
     738 0000000c 000000A8          .field  168,8                   ; g_pucRIT128x96x4Init[12] @ 96
     739 0000000c 00005FA8          .field  95,8                    ; g_pucRIT128x96x4Init[13] @ 104
     740 0000000c 00E35FA8          .field  227,8                   ; g_pucRIT128x96x4Init[14] @ 112
     741 0000000c 03E35FA8          .field  3,8                     ; g_pucRIT128x96x4Init[15] @ 120
     742 00000010 00000081          .field  129,8                   ; g_pucRIT128x96x4Init[16] @ 128
     743 00000010 0000B781          .field  183,8                   ; g_pucRIT128x96x4Init[17] @ 136
     744 00000010 00E3B781          .field  227,8                   ; g_pucRIT128x96x4Init[18] @ 144
     745 00000010 03E3B781          .field  3,8                     ; g_pucRIT128x96x4Init[19] @ 152
     746 00000014 00000082          .field  130,8                   ; g_pucRIT128x96x4Init[20] @ 160
     747 00000014 00003F82          .field  63,8                    ; g_pucRIT128x96x4Init[21] @ 168
     748 00000014 00E33F82          .field  227,8                   ; g_pucRIT128x96x4Init[22] @ 176
     749 00000014 03E33F82          .field  3,8                     ; g_pucRIT128x96x4Init[23] @ 184
     750 00000018 000000A0          .field  160,8                   ; g_pucRIT128x96x4Init[24] @ 192
     751 00000018 000052A0          .field  82,8                    ; g_pucRIT128x96x4Init[25] @ 200
     752 00000018 00E352A0          .field  227,8                   ; g_pucRIT128x96x4Init[26] @ 208
     753 00000018 03E352A0          .field  3,8                     ; g_pucRIT128x96x4Init[27] @ 216
     754 0000001c 000000A1          .field  161,8                   ; g_pucRIT128x96x4Init[28] @ 224
     755 0000001c 000000A1          .field  0,8                     ; g_pucRIT128x96x4Init[29] @ 232
     756 0000001c 00E300A1          .field  227,8                   ; g_pucRIT128x96x4Init[30] @ 240
     757 0000001c 03E300A1          .field  3,8                     ; g_pucRIT128x96x4Init[31] @ 248
     758 00000020 000000A2          .field  162,8                   ; g_pucRIT128x96x4Init[32] @ 256
     759 00000020 000000A2          .field  0,8                     ; g_pucRIT128x96x4Init[33] @ 264
     760 00000020 00E300A2          .field  227,8                   ; g_pucRIT128x96x4Init[34] @ 272
     761 00000020 02E300A2          .field  2,8                     ; g_pucRIT128x96x4Init[35] @ 280
     762 00000024 000000A4          .field  164,8                   ; g_pucRIT128x96x4Init[36] @ 288
     763 00000024 0000E3A4          .field  227,8                   ; g_pucRIT128x96x4Init[37] @ 296
     764 00000024 0003E3A4          .field  3,8                     ; g_pucRIT128x96x4Init[38] @ 304
     765 00000024 B103E3A4          .field  177,8                   ; g_pucRIT128x96x4Init[39] @ 312
     766 00000028 00000011          .field  17,8                    ; g_pucRIT128x96x4Init[40] @ 320
     767 00000028 0000E311          .field  227,8                   ; g_pucRIT128x96x4Init[41] @ 328
     768 00000028 0003E311          .field  3,8                     ; g_pucRIT128x96x4Init[42] @ 336
     769 00000028 B203E311          .field  178,8                   ; g_pucRIT128x96x4Init[43] @ 344
     770 0000002c 00000023          .field  35,8                    ; g_pucRIT128x96x4Init[44] @ 352
TI ARM Assembler PC v5.0.4 Mon Apr 28 11:29:12 2014

Tools Copyright (c) 1996-2013 Texas Instruments Incorporated
rit128x96x4.asm                                                      PAGE   15

     771 0000002c 0000E323          .field  227,8                   ; g_pucRIT128x96x4Init[45] @ 360
     772 0000002c 0003E323          .field  3,8                     ; g_pucRIT128x96x4Init[46] @ 368
     773 0000002c B303E323          .field  179,8                   ; g_pucRIT128x96x4Init[47] @ 376
     774 00000030 000000E2          .field  226,8                   ; g_pucRIT128x96x4Init[48] @ 384
     775 00000030 0000E3E2          .field  227,8                   ; g_pucRIT128x96x4Init[49] @ 392
     776 00000030 0011E3E2          .field  17,8                    ; g_pucRIT128x96x4Init[50] @ 400
     777 00000030 B811E3E2          .field  184,8                   ; g_pucRIT128x96x4Init[51] @ 408
     778 00000034 00000001          .field  1,8                     ; g_pucRIT128x96x4Init[52] @ 416
     779 00000034 00000201          .field  2,8                     ; g_pucRIT128x96x4Init[53] @ 424
     780 00000034 00030201          .field  3,8                     ; g_pucRIT128x96x4Init[54] @ 432
     781 00000034 04030201          .field  4,8                     ; g_pucRIT128x96x4Init[55] @ 440
     782 00000038 00000005          .field  5,8                     ; g_pucRIT128x96x4Init[56] @ 448
     783 00000038 00000605          .field  6,8                     ; g_pucRIT128x96x4Init[57] @ 456
     784 00000038 00080605          .field  8,8                     ; g_pucRIT128x96x4Init[58] @ 464
     785 00000038 0A080605          .field  10,8                    ; g_pucRIT128x96x4Init[59] @ 472
     786 0000003c 0000000C          .field  12,8                    ; g_pucRIT128x96x4Init[60] @ 480
     787 0000003c 00000E0C          .field  14,8                    ; g_pucRIT128x96x4Init[61] @ 488
     788 0000003c 00100E0C          .field  16,8                    ; g_pucRIT128x96x4Init[62] @ 496
     789 0000003c 13100E0C          .field  19,8                    ; g_pucRIT128x96x4Init[63] @ 504
     790 00000040 00000016          .field  22,8                    ; g_pucRIT128x96x4Init[64] @ 512
     791 00000040 00001A16          .field  26,8                    ; g_pucRIT128x96x4Init[65] @ 520
     792 00000040 001E1A16          .field  30,8                    ; g_pucRIT128x96x4Init[66] @ 528
     793 00000040 E31E1A16          .field  227,8                   ; g_pucRIT128x96x4Init[67] @ 536
     794 00000044 00000003          .field  3,8                     ; g_pucRIT128x96x4Init[68] @ 544
     795 00000044 0000BB03          .field  187,8                   ; g_pucRIT128x96x4Init[69] @ 552
     796 00000044 0001BB03          .field  1,8                     ; g_pucRIT128x96x4Init[70] @ 560
     797 00000044 E301BB03          .field  227,8                   ; g_pucRIT128x96x4Init[71] @ 568
     798 00000048 00000003          .field  3,8                     ; g_pucRIT128x96x4Init[72] @ 576
     799 00000048 0000BC03          .field  188,8                   ; g_pucRIT128x96x4Init[73] @ 584
     800 00000048 003FBC03          .field  63,8                    ; g_pucRIT128x96x4Init[74] @ 592
     801 00000048 E33FBC03          .field  227,8                   ; g_pucRIT128x96x4Init[75] @ 600
     802 0000004c 00000002          .field  2,8                     ; g_pucRIT128x96x4Init[76] @ 608
     803 0000004c 0000AF02          .field  175,8                   ; g_pucRIT128x96x4Init[77] @ 616
     804 0000004c 00E3AF02          .field  227,8                   ; g_pucRIT128x96x4Init[78] @ 624
     805                    
     806                    $C$DW$43        .dwtag  DW_TAG_variable, DW_AT_name("g_pucRIT128x96x4Init")
     807                            .dwattr $C$DW$43, DW_AT_TI_symbol_name("g_pucRIT128x96x4Init")
     808                            .dwattr $C$DW$43, DW_AT_type(*$C$DW$T$46)
     809                            .dwattr $C$DW$43, DW_AT_location[DW_OP_addr g_pucRIT128x96x4Init]
     810                            .dwattr $C$DW$43, DW_AT_decl_file("../Drivers/rit128x96x4.c")
     811                            .dwattr $C$DW$43, DW_AT_decl_line(0xe1)
     812                            .dwattr $C$DW$43, DW_AT_decl_column(0x1c)
     813 00000004                   .sect   ".const:.string"
     814                            .align  1
     815                            .elfsym pucCommand1$1,SYM_SIZE(4)
     816 00000004           pucCommand1$1:
     817 00000004 00000015          .field  21,8                    ; pucCommand1$1[0] @ 0
     818 00000004 00000015          .field  0,8                     ; pucCommand1$1[1] @ 8
     819 00000004 003F0015          .field  63,8                    ; pucCommand1$1[2] @ 16
     820                    
     821 00000007                   .sect   ".const:.string"
     822                            .align  1
     823                            .elfsym pucCommand2$2,SYM_SIZE(4)
     824 00000007           pucCommand2$2:
     825 00000004 753F0015          .field  117,8                   ; pucCommand2$2[0] @ 0
TI ARM Assembler PC v5.0.4 Mon Apr 28 11:29:12 2014

Tools Copyright (c) 1996-2013 Texas Instruments Incorporated
rit128x96x4.asm                                                      PAGE   16

     826 00000008 00000000          .field  0,8                     ; pucCommand2$2[1] @ 8
     827 00000008 00007F00          .field  127,8                   ; pucCommand2$2[2] @ 16
     828                    
     829 0000000a                   .sect   ".const:.string"
     830                            .align  1
     831                            .elfsym pucCommand1$3,SYM_SIZE(4)
     832 0000000a           pucCommand1$3:
     833 00000008 00AE7F00          .field  174,8                   ; pucCommand1$3[0] @ 0
     834 00000008 E3AE7F00          .field  227,8                   ; pucCommand1$3[1] @ 8
     835                    
     836                    ;       C:\TI_CodeComposer\ccsv5\tools\compiler\arm_5.0.4\bin\armacpia.exe -@C:\\Users\\llammers\\AppD
     837 00000000                   .sect   ".text"
     838                            .clink
     839                            .thumbfunc RITWriteCommand
     840 00000000                   .thumb
     841                    
     842                    $C$DW$44        .dwtag  DW_TAG_subprogram, DW_AT_name("RITWriteCommand")
     843                            .dwattr $C$DW$44, DW_AT_low_pc(RITWriteCommand)
     844                            .dwattr $C$DW$44, DW_AT_high_pc(0x00)
     845                            .dwattr $C$DW$44, DW_AT_TI_symbol_name("RITWriteCommand")
     846                            .dwattr $C$DW$44, DW_AT_TI_begin_file("../Drivers/rit128x96x4.c")
     847                            .dwattr $C$DW$44, DW_AT_TI_begin_line(0x149)
     848                            .dwattr $C$DW$44, DW_AT_TI_begin_column(0x01)
     849                            .dwattr $C$DW$44, DW_AT_decl_file("../Drivers/rit128x96x4.c")
     850                            .dwattr $C$DW$44, DW_AT_decl_line(0x149)
     851                            .dwattr $C$DW$44, DW_AT_decl_column(0x01)
     852                            .dwattr $C$DW$44, DW_AT_TI_max_frame_size(0x10)
     853                            .dwpsn  file "../Drivers/rit128x96x4.c",line 330,column 1,is_stmt,address RITWriteCommand,isa 
     854                    
     855                            .dwfde $C$DW$CIE, RITWriteCommand
     856                    $C$DW$45        .dwtag  DW_TAG_formal_parameter, DW_AT_name("pucBuffer")
     857                            .dwattr $C$DW$45, DW_AT_TI_symbol_name("pucBuffer")
     858                            .dwattr $C$DW$45, DW_AT_type(*$C$DW$T$32)
     859                            .dwattr $C$DW$45, DW_AT_location[DW_OP_reg0]
     860                    $C$DW$46        .dwtag  DW_TAG_formal_parameter, DW_AT_name("ulCount")
     861                            .dwattr $C$DW$46, DW_AT_TI_symbol_name("ulCount")
     862                            .dwattr $C$DW$46, DW_AT_type(*$C$DW$T$13)
     863                            .dwattr $C$DW$46, DW_AT_location[DW_OP_reg1]
     864                    
     865                    ;*****************************************************************************
     866                    ;* FUNCTION NAME: RITWriteCommand                                            *
     867                    ;*                                                                           *
     868                    ;*   Regs Modified     : A1,A2,A3,A4,V9,SP,LR,SR                             *
     869                    ;*   Regs Used         : A1,A2,A3,A4,V9,SP,LR,SR                             *
     870                    ;*   Local Frame Size  : 0 Args + 8 Auto + 4 Save = 12 byte                  *
     871                    ;*****************************************************************************
     872 00000000           RITWriteCommand:
     873                    ;* --------------------------------------------------------------------------*
     874                            .dwcfi  cfa_offset, 0
     875 00000000 B50E              PUSH      {A2, A3, A4, LR}      ; [DPU_3_PIPE]  ; [ORIG 16-BIT INS]
     876                            .dwcfi  cfa_offset, 4
     877                            .dwcfi  save_reg_to_mem, 14, -4
     878                            .dwcfi  cfa_offset, 8
     879                            .dwcfi  save_reg_to_mem, 3, -8
     880                            .dwcfi  cfa_offset, 12
TI ARM Assembler PC v5.0.4 Mon Apr 28 11:29:12 2014

Tools Copyright (c) 1996-2013 Texas Instruments Incorporated
rit128x96x4.asm                                                      PAGE   17

     881                            .dwcfi  save_reg_to_mem, 2, -12
     882                            .dwcfi  cfa_offset, 16
     883                            .dwcfi  save_reg_to_mem, 1, -16
     884                            .dwcfi  cfa_offset, 16
     885                    $C$DW$47        .dwtag  DW_TAG_variable, DW_AT_name("pucBuffer")
     886                            .dwattr $C$DW$47, DW_AT_TI_symbol_name("pucBuffer")
     887                            .dwattr $C$DW$47, DW_AT_type(*$C$DW$T$32)
     888                            .dwattr $C$DW$47, DW_AT_location[DW_OP_breg13 0]
     889                    $C$DW$48        .dwtag  DW_TAG_variable, DW_AT_name("ulCount")
     890                            .dwattr $C$DW$48, DW_AT_TI_symbol_name("ulCount")
     891                            .dwattr $C$DW$48, DW_AT_type(*$C$DW$T$13)
     892                            .dwattr $C$DW$48, DW_AT_location[DW_OP_breg13 4]
     893 00000002 9101              STR       A2, [SP, #4]          ; [DPU_3_PIPE] |330|  ; [ORIG 16-BIT INS]
     894 00000004 9000              STR       A1, [SP, #0]          ; [DPU_3_PIPE] |330|  ; [ORIG 16-BIT INS]
     895                            .dwpsn  file "../Drivers/rit128x96x4.c",line 334,column 5,is_stmt,isa 1
     896 00000006 4857              LDR       A1, $C$CON1           ; [DPU_3_PIPE] |334|  ; [ORIG 16-BIT INS]
     897 00000008 4956              LDR       A2, $C$CON1           ; [DPU_3_PIPE] |334|  ; [ORIG 16-BIT INS]
     898 0000000a 4070F000          AND       A1, A1, #-268435456   ; [DPU_3_PIPE] |334|  ; [KEEP 32-BIT INS]
     899 0000000e 511FF36F          BFC       A2, #20, #12          ; [DPU_3_PIPE] |334|  ; [KEEP 32-BIT INS]
     900 00000012 1041EA40          ORR       A1, A1, A2, LSL #5    ; [DPU_3_PIPE] |334|  ; [KEEP 32-BIT INS]
     901 00000016 7000F040          ORR       A1, A1, #33554432     ; [DPU_3_PIPE] |334|  ; [KEEP 32-BIT INS]
     902 0000001a 6800              LDR       A1, [A1, #0]          ; [DPU_3_PIPE] |334|  ; [ORIG 16-BIT INS]
     903 0000001c 2800              CMP       A1, #0                ; [DPU_3_PIPE] |334|  ; [ORIG 16-BIT INS]
     904 0000001e D030              BEQ       ||$C$L4||             ; [DPU_3_PIPE] |334|  ; [ORIG 16-BIT INS]
     905                            ; BRANCHCC OCCURS {||$C$L4||}    ; [] |334| 
     906                    ;* --------------------------------------------------------------------------*
     907                            .dwpsn  file "../Drivers/rit128x96x4.c",line 336,column 9,is_stmt,isa 1
     908                            .dwpsn  file "../Drivers/rit128x96x4.c",line 342,column 5,is_stmt,isa 1
     909 00000020 4950              LDR       A2, $C$CON1           ; [DPU_3_PIPE] |342|  ; [ORIG 16-BIT INS]
     910 00000022 4850              LDR       A1, $C$CON1           ; [DPU_3_PIPE] |342|  ; [ORIG 16-BIT INS]
     911 00000024 511FF36F          BFC       A2, #20, #12          ; [DPU_3_PIPE] |342|  ; [KEEP 32-BIT INS]
     912 00000028 4070F000          AND       A1, A1, #-268435456   ; [DPU_3_PIPE] |342|  ; [KEEP 32-BIT INS]
     913 0000002c 1041EA40          ORR       A1, A1, A2, LSL #5    ; [DPU_3_PIPE] |342|  ; [KEEP 32-BIT INS]
     914 00000030 494D              LDR       A2, $C$CON2           ; [DPU_3_PIPE] |342|  ; [ORIG 16-BIT INS]
     915 00000032 4301              ORRS      A2, A2, A1            ; [DPU_3_PIPE] |342|  ; [ORIG 16-BIT INS]
     916 00000034 6808              LDR       A1, [A2, #0]          ; [DPU_3_PIPE] |342|  ; [ORIG 16-BIT INS]
     917 00000036 B1A8              CBZ       A1, ||$C$L2||         ; []  ; [ORIG 16-BIT INS]
     918                            ; BRANCHCC OCCURS {||$C$L2||}    ; [] |342| 
     919                    ;* --------------------------------------------------------------------------*
     920                            .dwpsn  file "../Drivers/rit128x96x4.c",line 348,column 9,is_stmt,isa 1
     921                    ;* --------------------------------------------------------------------------*
     922                    ;*   BEGIN LOOP ||$C$L1||
     923                    ;*
     924                    ;*   Loop source line                : 348
     925                    ;*   Loop closing brace source line  : 350
     926                    ;*   Known Minimum Trip Count        : 1
     927                    ;*   Known Maximum Trip Count        : 4294967295
     928                    ;*   Known Max Trip Count Factor     : 1
     929                    ;* --------------------------------------------------------------------------*
     930 00000038           ||$C$L1||:    
     931 00000038           $C$DW$L$RITWriteCommand$4$B:
     932                            .dwpsn  file "../Drivers/rit128x96x4.c",line 350,column 9,is_stmt,isa 1
     933 00000038 484C              LDR       A1, $C$CON3           ; [DPU_3_PIPE] |350|  ; [ORIG 16-BIT INS]
     934                    $C$DW$49        .dwtag  DW_TAG_TI_branch
     935                            .dwattr $C$DW$49, DW_AT_low_pc(0x00)
TI ARM Assembler PC v5.0.4 Mon Apr 28 11:29:12 2014

Tools Copyright (c) 1996-2013 Texas Instruments Incorporated
rit128x96x4.asm                                                      PAGE   18

     936                            .dwattr $C$DW$49, DW_AT_name("SSIBusy")
     937                            .dwattr $C$DW$49, DW_AT_TI_call
     938 0000003a FFFEF7FF!         BL        SSIBusy               ; [DPU_3_PIPE] |350|  ; [KEEP 32-BIT INS]
     939                            ; CALL OCCURS {SSIBusy }         ; [] |350| 
     940 0000003e 2800              CMP       A1, #0                ; [DPU_3_PIPE] |350|  ; [ORIG 16-BIT INS]
     941 00000040 D1FA              BNE       ||$C$L1||             ; [DPU_3_PIPE] |350|  ; [ORIG 16-BIT INS]
     942                            ; BRANCHCC OCCURS {||$C$L1||}    ; [] |350| 
     943 00000042           $C$DW$L$RITWriteCommand$4$E:
     944                    ;* --------------------------------------------------------------------------*
     945                            .dwpsn  file "../Drivers/rit128x96x4.c",line 355,column 9,is_stmt,isa 1
     946 00000042 484B              LDR       A1, $C$CON4           ; [DPU_3_PIPE] |355|  ; [ORIG 16-BIT INS]
     947 00000044 2104              MOVS      A2, #4                ; [DPU_3_PIPE] |355|  ; [ORIG 16-BIT INS]
     948 00000046 2200              MOVS      A3, #0                ; [DPU_3_PIPE] |355|  ; [ORIG 16-BIT INS]
     949                    $C$DW$50        .dwtag  DW_TAG_TI_branch
     950                            .dwattr $C$DW$50, DW_AT_low_pc(0x00)
     951                            .dwattr $C$DW$50, DW_AT_name("GPIOPinWrite")
     952                            .dwattr $C$DW$50, DW_AT_TI_call
     953 00000048 FFFEF7FF!         BL        GPIOPinWrite          ; [DPU_3_PIPE] |355|  ; [KEEP 32-BIT INS]
     954                            ; CALL OCCURS {GPIOPinWrite }    ; [] |355| 
     955                            .dwpsn  file "../Drivers/rit128x96x4.c",line 356,column 9,is_stmt,isa 1
     956 0000004c 4945              LDR       A2, $C$CON1           ; [DPU_3_PIPE] |356|  ; [ORIG 16-BIT INS]
     957 0000004e 4845              LDR       A1, $C$CON1           ; [DPU_3_PIPE] |356|  ; [ORIG 16-BIT INS]
     958 00000050 511FF36F          BFC       A2, #20, #12          ; [DPU_3_PIPE] |356|  ; [KEEP 32-BIT INS]
     959 00000054 4070F000          AND       A1, A1, #-268435456   ; [DPU_3_PIPE] |356|  ; [KEEP 32-BIT INS]
     960 00000058 1041EA40          ORR       A1, A1, A2, LSL #5    ; [DPU_3_PIPE] |356|  ; [KEEP 32-BIT INS]
     961 0000005c 4942              LDR       A2, $C$CON2           ; [DPU_3_PIPE] |356|  ; [ORIG 16-BIT INS]
     962 0000005e 4301              ORRS      A2, A2, A1            ; [DPU_3_PIPE] |356|  ; [ORIG 16-BIT INS]
     963 00000060 2000              MOVS      A1, #0                ; [DPU_3_PIPE] |356|  ; [ORIG 16-BIT INS]
     964 00000062 6008              STR       A1, [A2, #0]          ; [DPU_3_PIPE] |356|  ; [ORIG 16-BIT INS]
     965                    ;* --------------------------------------------------------------------------*
     966 00000064           ||$C$L2||:    
     967                            .dwpsn  file "../Drivers/rit128x96x4.c",line 362,column 11,is_stmt,isa 1
     968 00000064 9801              LDR       A1, [SP, #4]          ; [DPU_3_PIPE] |362|  ; [ORIG 16-BIT INS]
     969 00000066 B160              CBZ       A1, ||$C$L4||         ; []  ; [ORIG 16-BIT INS]
     970                            ; BRANCHCC OCCURS {||$C$L4||}    ; [] |362| 
     971                    ;* --------------------------------------------------------------------------*
     972                    ;*   BEGIN LOOP ||$C$L3||
     973                    ;*
     974                    ;*   Loop source line                : 362
     975                    ;*   Loop closing brace source line  : 373
     976                    ;*   Known Minimum Trip Count        : 1
     977                    ;*   Known Maximum Trip Count        : 4294967295
     978                    ;*   Known Max Trip Count Factor     : 1
     979                    ;* --------------------------------------------------------------------------*
     980 00000068           ||$C$L3||:    
     981 00000068           $C$DW$L$RITWriteCommand$7$B:
     982                            .dwpsn  file "../Drivers/rit128x96x4.c",line 367,column 9,is_stmt,isa 1
     983 00000068 9800              LDR       A1, [SP, #0]          ; [DPU_3_PIPE] |367|  ; [ORIG 16-BIT INS]
     984 0000006a 1B01F810          LDRB      A2, [A1], #1          ; [DPU_3_PIPE] |367|  ; [KEEP 32-BIT INS]
     985 0000006e 9000              STR       A1, [SP, #0]          ; [DPU_3_PIPE] |367|  ; [ORIG 16-BIT INS]
     986 00000070 483E              LDR       A1, $C$CON3           ; [DPU_3_PIPE] |367|  ; [ORIG 16-BIT INS]
     987                    $C$DW$51        .dwtag  DW_TAG_TI_branch
     988                            .dwattr $C$DW$51, DW_AT_low_pc(0x00)
     989                            .dwattr $C$DW$51, DW_AT_name("SSIDataPut")
     990                            .dwattr $C$DW$51, DW_AT_TI_call
TI ARM Assembler PC v5.0.4 Mon Apr 28 11:29:12 2014

Tools Copyright (c) 1996-2013 Texas Instruments Incorporated
rit128x96x4.asm                                                      PAGE   19

     991 00000072 FFFEF7FF!         BL        SSIDataPut            ; [DPU_3_PIPE] |367|  ; [KEEP 32-BIT INS]
     992                            ; CALL OCCURS {SSIDataPut }      ; [] |367| 
     993                            .dwpsn  file "../Drivers/rit128x96x4.c",line 372,column 9,is_stmt,isa 1
     994 00000076 9801              LDR       A1, [SP, #4]          ; [DPU_3_PIPE] |372|  ; [ORIG 16-BIT INS]
     995 00000078 1E40              SUBS      A1, A1, #1            ; [DPU_3_PIPE] |372|  ; [ORIG 16-BIT INS]
     996 0000007a 9001              STR       A1, [SP, #4]          ; [DPU_3_PIPE] |372|  ; [ORIG 16-BIT INS]
     997                            .dwpsn  file "../Drivers/rit128x96x4.c",line 362,column 11,is_stmt,isa 1
     998 0000007c 9801              LDR       A1, [SP, #4]          ; [DPU_3_PIPE] |362|  ; [ORIG 16-BIT INS]
     999 0000007e 2800              CMP       A1, #0                ; [DPU_3_PIPE] |362|  ; [ORIG 16-BIT INS]
    1000 00000080 D1F2              BNE       ||$C$L3||             ; [DPU_3_PIPE] |362|  ; [ORIG 16-BIT INS]
    1001                            ; BRANCHCC OCCURS {||$C$L3||}    ; [] |362| 
    1002 00000082           $C$DW$L$RITWriteCommand$7$E:
    1003                    ;* --------------------------------------------------------------------------*
    1004                            .dwpsn  file "../Drivers/rit128x96x4.c",line 374,column 1,is_stmt,isa 1
    1005                    ;* --------------------------------------------------------------------------*
    1006 00000082           ||$C$L4||:    
    1007                            .dwcfi  cfa_offset, 16
    1008                    $C$DW$52        .dwtag  DW_TAG_TI_branch
    1009                            .dwattr $C$DW$52, DW_AT_low_pc(0x00)
    1010                            .dwattr $C$DW$52, DW_AT_TI_return
    1011 00000082 BD0E              POP       {A2, A3, A4, PC}      ; [DPU_3_PIPE]  ; [ORIG 16-BIT INS]
    1012                            ; BRANCH OCCURS                  ; [] 
    1013                    
    1014                    $C$DW$53        .dwtag  DW_TAG_TI_loop
    1015                            .dwattr $C$DW$53, DW_AT_name("H:\EECS_388\TI_ARM_Project\FreeRTOS_IntTimer\Debug\rit128x96x4.a
    1016                            .dwattr $C$DW$53, DW_AT_TI_begin_file("../Drivers/rit128x96x4.c")
    1017                            .dwattr $C$DW$53, DW_AT_TI_begin_line(0x16a)
    1018                            .dwattr $C$DW$53, DW_AT_TI_end_line(0x175)
    1019                    $C$DW$54        .dwtag  DW_TAG_TI_loop_range
    1020                            .dwattr $C$DW$54, DW_AT_low_pc($C$DW$L$RITWriteCommand$7$B)
    1021                            .dwattr $C$DW$54, DW_AT_high_pc($C$DW$L$RITWriteCommand$7$E)
    1022                            .dwendtag $C$DW$53
    1023                    
    1024                    
    1025                    $C$DW$55        .dwtag  DW_TAG_TI_loop
    1026                            .dwattr $C$DW$55, DW_AT_name("H:\EECS_388\TI_ARM_Project\FreeRTOS_IntTimer\Debug\rit128x96x4.a
    1027                            .dwattr $C$DW$55, DW_AT_TI_begin_file("../Drivers/rit128x96x4.c")
    1028                            .dwattr $C$DW$55, DW_AT_TI_begin_line(0x15c)
    1029                            .dwattr $C$DW$55, DW_AT_TI_end_line(0x15e)
    1030                    $C$DW$56        .dwtag  DW_TAG_TI_loop_range
    1031                            .dwattr $C$DW$56, DW_AT_low_pc($C$DW$L$RITWriteCommand$4$B)
    1032                            .dwattr $C$DW$56, DW_AT_high_pc($C$DW$L$RITWriteCommand$4$E)
    1033                            .dwendtag $C$DW$55
    1034                    
    1035                            .dwattr $C$DW$44, DW_AT_TI_end_file("../Drivers/rit128x96x4.c")
    1036                            .dwattr $C$DW$44, DW_AT_TI_end_line(0x176)
    1037                            .dwattr $C$DW$44, DW_AT_TI_end_column(0x01)
    1038                            .dwendentry
    1039                            .dwendtag $C$DW$44
    1040                    
    1041 00000084                   .sect   ".text"
    1042                            .clink
    1043                            .thumbfunc RITWriteData
    1044 00000084                   .thumb
    1045                    
TI ARM Assembler PC v5.0.4 Mon Apr 28 11:29:12 2014

Tools Copyright (c) 1996-2013 Texas Instruments Incorporated
rit128x96x4.asm                                                      PAGE   20

    1046                    $C$DW$57        .dwtag  DW_TAG_subprogram, DW_AT_name("RITWriteData")
    1047                            .dwattr $C$DW$57, DW_AT_low_pc(RITWriteData)
    1048                            .dwattr $C$DW$57, DW_AT_high_pc(0x00)
    1049                            .dwattr $C$DW$57, DW_AT_TI_symbol_name("RITWriteData")
    1050                            .dwattr $C$DW$57, DW_AT_TI_begin_file("../Drivers/rit128x96x4.c")
    1051                            .dwattr $C$DW$57, DW_AT_TI_begin_line(0x185)
    1052                            .dwattr $C$DW$57, DW_AT_TI_begin_column(0x01)
    1053                            .dwattr $C$DW$57, DW_AT_decl_file("../Drivers/rit128x96x4.c")
    1054                            .dwattr $C$DW$57, DW_AT_decl_line(0x185)
    1055                            .dwattr $C$DW$57, DW_AT_decl_column(0x01)
    1056                            .dwattr $C$DW$57, DW_AT_TI_max_frame_size(0x10)
    1057                            .dwpsn  file "../Drivers/rit128x96x4.c",line 390,column 1,is_stmt,address RITWriteData,isa 1
    1058                    
    1059                            .dwfde $C$DW$CIE, RITWriteData
    1060                    $C$DW$58        .dwtag  DW_TAG_formal_parameter, DW_AT_name("pucBuffer")
    1061                            .dwattr $C$DW$58, DW_AT_TI_symbol_name("pucBuffer")
    1062                            .dwattr $C$DW$58, DW_AT_type(*$C$DW$T$32)
    1063                            .dwattr $C$DW$58, DW_AT_location[DW_OP_reg0]
    1064                    $C$DW$59        .dwtag  DW_TAG_formal_parameter, DW_AT_name("ulCount")
    1065                            .dwattr $C$DW$59, DW_AT_TI_symbol_name("ulCount")
    1066                            .dwattr $C$DW$59, DW_AT_type(*$C$DW$T$13)
    1067                            .dwattr $C$DW$59, DW_AT_location[DW_OP_reg1]
    1068                    
    1069                    ;*****************************************************************************
    1070                    ;* FUNCTION NAME: RITWriteData                                               *
    1071                    ;*                                                                           *
    1072                    ;*   Regs Modified     : A1,A2,A3,A4,V9,SP,LR,SR                             *
    1073                    ;*   Regs Used         : A1,A2,A3,A4,V9,SP,LR,SR                             *
    1074                    ;*   Local Frame Size  : 0 Args + 8 Auto + 4 Save = 12 byte                  *
    1075                    ;*****************************************************************************
    1076 00000084           RITWriteData:
    1077                    ;* --------------------------------------------------------------------------*
    1078                            .dwcfi  cfa_offset, 0
    1079 00000084 B50E              PUSH      {A2, A3, A4, LR}      ; [DPU_3_PIPE]  ; [ORIG 16-BIT INS]
    1080                            .dwcfi  cfa_offset, 4
    1081                            .dwcfi  save_reg_to_mem, 14, -4
    1082                            .dwcfi  cfa_offset, 8
    1083                            .dwcfi  save_reg_to_mem, 3, -8
    1084                            .dwcfi  cfa_offset, 12
    1085                            .dwcfi  save_reg_to_mem, 2, -12
    1086                            .dwcfi  cfa_offset, 16
    1087                            .dwcfi  save_reg_to_mem, 1, -16
    1088                            .dwcfi  cfa_offset, 16
    1089                    $C$DW$60        .dwtag  DW_TAG_variable, DW_AT_name("pucBuffer")
    1090                            .dwattr $C$DW$60, DW_AT_TI_symbol_name("pucBuffer")
    1091                            .dwattr $C$DW$60, DW_AT_type(*$C$DW$T$32)
    1092                            .dwattr $C$DW$60, DW_AT_location[DW_OP_breg13 0]
    1093                    $C$DW$61        .dwtag  DW_TAG_variable, DW_AT_name("ulCount")
    1094                            .dwattr $C$DW$61, DW_AT_TI_symbol_name("ulCount")
    1095                            .dwattr $C$DW$61, DW_AT_type(*$C$DW$T$13)
    1096                            .dwattr $C$DW$61, DW_AT_location[DW_OP_breg13 4]
    1097 00000086 9101              STR       A2, [SP, #4]          ; [DPU_3_PIPE] |390|  ; [ORIG 16-BIT INS]
    1098 00000088 9000              STR       A1, [SP, #0]          ; [DPU_3_PIPE] |390|  ; [ORIG 16-BIT INS]
    1099                            .dwpsn  file "../Drivers/rit128x96x4.c",line 394,column 5,is_stmt,isa 1
    1100 0000008a 4836              LDR       A1, $C$CON1           ; [DPU_3_PIPE] |394|  ; [ORIG 16-BIT INS]
TI ARM Assembler PC v5.0.4 Mon Apr 28 11:29:12 2014

Tools Copyright (c) 1996-2013 Texas Instruments Incorporated
rit128x96x4.asm                                                      PAGE   21

    1101 0000008c 4935              LDR       A2, $C$CON1           ; [DPU_3_PIPE] |394|  ; [ORIG 16-BIT INS]
    1102 0000008e 4070F000          AND       A1, A1, #-268435456   ; [DPU_3_PIPE] |394|  ; [KEEP 32-BIT INS]
    1103 00000092 511FF36F          BFC       A2, #20, #12          ; [DPU_3_PIPE] |394|  ; [KEEP 32-BIT INS]
    1104 00000096 1041EA40          ORR       A1, A1, A2, LSL #5    ; [DPU_3_PIPE] |394|  ; [KEEP 32-BIT INS]
    1105 0000009a 7000F040          ORR       A1, A1, #33554432     ; [DPU_3_PIPE] |394|  ; [KEEP 32-BIT INS]
    1106 0000009e 6800              LDR       A1, [A1, #0]          ; [DPU_3_PIPE] |394|  ; [ORIG 16-BIT INS]
    1107 000000a0 2800              CMP       A1, #0                ; [DPU_3_PIPE] |394|  ; [ORIG 16-BIT INS]
    1108 000000a2 D030              BEQ       ||$C$L8||             ; [DPU_3_PIPE] |394|  ; [ORIG 16-BIT INS]
    1109                            ; BRANCHCC OCCURS {||$C$L8||}    ; [] |394| 
    1110                    ;* --------------------------------------------------------------------------*
    1111                            .dwpsn  file "../Drivers/rit128x96x4.c",line 396,column 9,is_stmt,isa 1
    1112                            .dwpsn  file "../Drivers/rit128x96x4.c",line 402,column 5,is_stmt,isa 1
    1113 000000a4 492F              LDR       A2, $C$CON1           ; [DPU_3_PIPE] |402|  ; [ORIG 16-BIT INS]
    1114 000000a6 482F              LDR       A1, $C$CON1           ; [DPU_3_PIPE] |402|  ; [ORIG 16-BIT INS]
    1115 000000a8 511FF36F          BFC       A2, #20, #12          ; [DPU_3_PIPE] |402|  ; [KEEP 32-BIT INS]
    1116 000000ac 4070F000          AND       A1, A1, #-268435456   ; [DPU_3_PIPE] |402|  ; [KEEP 32-BIT INS]
    1117 000000b0 1041EA40          ORR       A1, A1, A2, LSL #5    ; [DPU_3_PIPE] |402|  ; [KEEP 32-BIT INS]
    1118 000000b4 492C              LDR       A2, $C$CON2           ; [DPU_3_PIPE] |402|  ; [ORIG 16-BIT INS]
    1119 000000b6 4301              ORRS      A2, A2, A1            ; [DPU_3_PIPE] |402|  ; [ORIG 16-BIT INS]
    1120 000000b8 6808              LDR       A1, [A2, #0]          ; [DPU_3_PIPE] |402|  ; [ORIG 16-BIT INS]
    1121 000000ba B9A8              CBNZ      A1, ||$C$L6||         ; []  ; [ORIG 16-BIT INS]
    1122                            ; BRANCHCC OCCURS {||$C$L6||}    ; [] |402| 
    1123                    ;* --------------------------------------------------------------------------*
    1124                            .dwpsn  file "../Drivers/rit128x96x4.c",line 408,column 9,is_stmt,isa 1
    1125                    ;* --------------------------------------------------------------------------*
    1126                    ;*   BEGIN LOOP ||$C$L5||
    1127                    ;*
    1128                    ;*   Loop source line                : 408
    1129                    ;*   Loop closing brace source line  : 410
    1130                    ;*   Known Minimum Trip Count        : 1
    1131                    ;*   Known Maximum Trip Count        : 4294967295
    1132                    ;*   Known Max Trip Count Factor     : 1
    1133                    ;* --------------------------------------------------------------------------*
    1134 000000bc           ||$C$L5||:    
    1135 000000bc           $C$DW$L$RITWriteData$4$B:
    1136                            .dwpsn  file "../Drivers/rit128x96x4.c",line 410,column 9,is_stmt,isa 1
    1137 000000bc 482B              LDR       A1, $C$CON3           ; [DPU_3_PIPE] |410|  ; [ORIG 16-BIT INS]
    1138                    $C$DW$62        .dwtag  DW_TAG_TI_branch
    1139                            .dwattr $C$DW$62, DW_AT_low_pc(0x00)
    1140                            .dwattr $C$DW$62, DW_AT_name("SSIBusy")
    1141                            .dwattr $C$DW$62, DW_AT_TI_call
    1142 000000be FFFEF7FF!         BL        SSIBusy               ; [DPU_3_PIPE] |410|  ; [KEEP 32-BIT INS]
    1143                            ; CALL OCCURS {SSIBusy }         ; [] |410| 
    1144 000000c2 2800              CMP       A1, #0                ; [DPU_3_PIPE] |410|  ; [ORIG 16-BIT INS]
    1145 000000c4 D1FA              BNE       ||$C$L5||             ; [DPU_3_PIPE] |410|  ; [ORIG 16-BIT INS]
    1146                            ; BRANCHCC OCCURS {||$C$L5||}    ; [] |410| 
    1147 000000c6           $C$DW$L$RITWriteData$4$E:
    1148                    ;* --------------------------------------------------------------------------*
    1149                            .dwpsn  file "../Drivers/rit128x96x4.c",line 415,column 9,is_stmt,isa 1
    1150 000000c6 482A              LDR       A1, $C$CON4           ; [DPU_3_PIPE] |415|  ; [ORIG 16-BIT INS]
    1151 000000c8 2104              MOVS      A2, #4                ; [DPU_3_PIPE] |415|  ; [ORIG 16-BIT INS]
    1152 000000ca 2204              MOVS      A3, #4                ; [DPU_3_PIPE] |415|  ; [ORIG 16-BIT INS]
    1153                    $C$DW$63        .dwtag  DW_TAG_TI_branch
    1154                            .dwattr $C$DW$63, DW_AT_low_pc(0x00)
    1155                            .dwattr $C$DW$63, DW_AT_name("GPIOPinWrite")
TI ARM Assembler PC v5.0.4 Mon Apr 28 11:29:12 2014

Tools Copyright (c) 1996-2013 Texas Instruments Incorporated
rit128x96x4.asm                                                      PAGE   22

    1156                            .dwattr $C$DW$63, DW_AT_TI_call
    1157 000000cc FFFEF7FF!         BL        GPIOPinWrite          ; [DPU_3_PIPE] |415|  ; [KEEP 32-BIT INS]
    1158                            ; CALL OCCURS {GPIOPinWrite }    ; [] |415| 
    1159                            .dwpsn  file "../Drivers/rit128x96x4.c",line 416,column 9,is_stmt,isa 1
    1160 000000d0 4924              LDR       A2, $C$CON1           ; [DPU_3_PIPE] |416|  ; [ORIG 16-BIT INS]
    1161 000000d2 4824              LDR       A1, $C$CON1           ; [DPU_3_PIPE] |416|  ; [ORIG 16-BIT INS]
    1162 000000d4 511FF36F          BFC       A2, #20, #12          ; [DPU_3_PIPE] |416|  ; [KEEP 32-BIT INS]
    1163 000000d8 4070F000          AND       A1, A1, #-268435456   ; [DPU_3_PIPE] |416|  ; [KEEP 32-BIT INS]
    1164 000000dc 1041EA40          ORR       A1, A1, A2, LSL #5    ; [DPU_3_PIPE] |416|  ; [KEEP 32-BIT INS]
    1165 000000e0 4921              LDR       A2, $C$CON2           ; [DPU_3_PIPE] |416|  ; [ORIG 16-BIT INS]
    1166 000000e2 4301              ORRS      A2, A2, A1            ; [DPU_3_PIPE] |416|  ; [ORIG 16-BIT INS]
    1167 000000e4 2001              MOVS      A1, #1                ; [DPU_3_PIPE] |416|  ; [ORIG 16-BIT INS]
    1168 000000e6 6008              STR       A1, [A2, #0]          ; [DPU_3_PIPE] |416|  ; [ORIG 16-BIT INS]
    1169                    ;* --------------------------------------------------------------------------*
    1170 000000e8           ||$C$L6||:    
    1171                            .dwpsn  file "../Drivers/rit128x96x4.c",line 422,column 11,is_stmt,isa 1
    1172 000000e8 9801              LDR       A1, [SP, #4]          ; [DPU_3_PIPE] |422|  ; [ORIG 16-BIT INS]
    1173 000000ea B160              CBZ       A1, ||$C$L8||         ; []  ; [ORIG 16-BIT INS]
    1174                            ; BRANCHCC OCCURS {||$C$L8||}    ; [] |422| 
    1175                    ;* --------------------------------------------------------------------------*
    1176                    ;*   BEGIN LOOP ||$C$L7||
    1177                    ;*
    1178                    ;*   Loop source line                : 422
    1179                    ;*   Loop closing brace source line  : 433
    1180                    ;*   Known Minimum Trip Count        : 1
    1181                    ;*   Known Maximum Trip Count        : 4294967295
    1182                    ;*   Known Max Trip Count Factor     : 1
    1183                    ;* --------------------------------------------------------------------------*
    1184 000000ec           ||$C$L7||:    
    1185 000000ec           $C$DW$L$RITWriteData$7$B:
    1186                            .dwpsn  file "../Drivers/rit128x96x4.c",line 427,column 9,is_stmt,isa 1
    1187 000000ec 9800              LDR       A1, [SP, #0]          ; [DPU_3_PIPE] |427|  ; [ORIG 16-BIT INS]
    1188 000000ee 1B01F810          LDRB      A2, [A1], #1          ; [DPU_3_PIPE] |427|  ; [KEEP 32-BIT INS]
    1189 000000f2 9000              STR       A1, [SP, #0]          ; [DPU_3_PIPE] |427|  ; [ORIG 16-BIT INS]
    1190 000000f4 481D              LDR       A1, $C$CON3           ; [DPU_3_PIPE] |427|  ; [ORIG 16-BIT INS]
    1191                    $C$DW$64        .dwtag  DW_TAG_TI_branch
    1192                            .dwattr $C$DW$64, DW_AT_low_pc(0x00)
    1193                            .dwattr $C$DW$64, DW_AT_name("SSIDataPut")
    1194                            .dwattr $C$DW$64, DW_AT_TI_call
    1195 000000f6 FFFEF7FF!         BL        SSIDataPut            ; [DPU_3_PIPE] |427|  ; [KEEP 32-BIT INS]
    1196                            ; CALL OCCURS {SSIDataPut }      ; [] |427| 
    1197                            .dwpsn  file "../Drivers/rit128x96x4.c",line 432,column 9,is_stmt,isa 1
    1198 000000fa 9801              LDR       A1, [SP, #4]          ; [DPU_3_PIPE] |432|  ; [ORIG 16-BIT INS]
    1199 000000fc 1E40              SUBS      A1, A1, #1            ; [DPU_3_PIPE] |432|  ; [ORIG 16-BIT INS]
    1200 000000fe 9001              STR       A1, [SP, #4]          ; [DPU_3_PIPE] |432|  ; [ORIG 16-BIT INS]
    1201                            .dwpsn  file "../Drivers/rit128x96x4.c",line 422,column 11,is_stmt,isa 1
    1202 00000100 9801              LDR       A1, [SP, #4]          ; [DPU_3_PIPE] |422|  ; [ORIG 16-BIT INS]
    1203 00000102 2800              CMP       A1, #0                ; [DPU_3_PIPE] |422|  ; [ORIG 16-BIT INS]
    1204 00000104 D1F2              BNE       ||$C$L7||             ; [DPU_3_PIPE] |422|  ; [ORIG 16-BIT INS]
    1205                            ; BRANCHCC OCCURS {||$C$L7||}    ; [] |422| 
    1206 00000106           $C$DW$L$RITWriteData$7$E:
    1207                    ;* --------------------------------------------------------------------------*
    1208                            .dwpsn  file "../Drivers/rit128x96x4.c",line 434,column 1,is_stmt,isa 1
    1209                    ;* --------------------------------------------------------------------------*
    1210 00000106           ||$C$L8||:    
TI ARM Assembler PC v5.0.4 Mon Apr 28 11:29:12 2014

Tools Copyright (c) 1996-2013 Texas Instruments Incorporated
rit128x96x4.asm                                                      PAGE   23

    1211                            .dwcfi  cfa_offset, 16
    1212                    $C$DW$65        .dwtag  DW_TAG_TI_branch
    1213                            .dwattr $C$DW$65, DW_AT_low_pc(0x00)
    1214                            .dwattr $C$DW$65, DW_AT_TI_return
    1215 00000106 BD0E              POP       {A2, A3, A4, PC}      ; [DPU_3_PIPE]  ; [ORIG 16-BIT INS]
    1216                            ; BRANCH OCCURS                  ; [] 
    1217                    
    1218                    $C$DW$66        .dwtag  DW_TAG_TI_loop
    1219                            .dwattr $C$DW$66, DW_AT_name("H:\EECS_388\TI_ARM_Project\FreeRTOS_IntTimer\Debug\rit128x96x4.a
    1220                            .dwattr $C$DW$66, DW_AT_TI_begin_file("../Drivers/rit128x96x4.c")
    1221                            .dwattr $C$DW$66, DW_AT_TI_begin_line(0x1a6)
    1222                            .dwattr $C$DW$66, DW_AT_TI_end_line(0x1b1)
    1223                    $C$DW$67        .dwtag  DW_TAG_TI_loop_range
    1224                            .dwattr $C$DW$67, DW_AT_low_pc($C$DW$L$RITWriteData$7$B)
    1225                            .dwattr $C$DW$67, DW_AT_high_pc($C$DW$L$RITWriteData$7$E)
    1226                            .dwendtag $C$DW$66
    1227                    
    1228                    
    1229                    $C$DW$68        .dwtag  DW_TAG_TI_loop
    1230                            .dwattr $C$DW$68, DW_AT_name("H:\EECS_388\TI_ARM_Project\FreeRTOS_IntTimer\Debug\rit128x96x4.a
    1231                            .dwattr $C$DW$68, DW_AT_TI_begin_file("../Drivers/rit128x96x4.c")
    1232                            .dwattr $C$DW$68, DW_AT_TI_begin_line(0x198)
    1233                            .dwattr $C$DW$68, DW_AT_TI_end_line(0x19a)
    1234                    $C$DW$69        .dwtag  DW_TAG_TI_loop_range
    1235                            .dwattr $C$DW$69, DW_AT_low_pc($C$DW$L$RITWriteData$4$B)
    1236                            .dwattr $C$DW$69, DW_AT_high_pc($C$DW$L$RITWriteData$4$E)
    1237                            .dwendtag $C$DW$68
    1238                    
    1239                            .dwattr $C$DW$57, DW_AT_TI_end_file("../Drivers/rit128x96x4.c")
    1240                            .dwattr $C$DW$57, DW_AT_TI_end_line(0x1b2)
    1241                            .dwattr $C$DW$57, DW_AT_TI_end_column(0x01)
    1242                            .dwendentry
    1243                            .dwendtag $C$DW$57
    1244                    
    1245 00000108                   .sect   ".text"
    1246                            .clink
    1247                            .thumbfunc RIT128x96x4Clear
    1248 00000108                   .thumb
    1249                            .global RIT128x96x4Clear
    1250                    
    1251                    $C$DW$70        .dwtag  DW_TAG_subprogram, DW_AT_name("RIT128x96x4Clear")
    1252                            .dwattr $C$DW$70, DW_AT_low_pc(RIT128x96x4Clear)
    1253                            .dwattr $C$DW$70, DW_AT_high_pc(0x00)
    1254                            .dwattr $C$DW$70, DW_AT_TI_symbol_name("RIT128x96x4Clear")
    1255                            .dwattr $C$DW$70, DW_AT_external
    1256                            .dwattr $C$DW$70, DW_AT_TI_begin_file("../Drivers/rit128x96x4.c")
    1257                            .dwattr $C$DW$70, DW_AT_TI_begin_line(0x1bf)
    1258                            .dwattr $C$DW$70, DW_AT_TI_begin_column(0x01)
    1259                            .dwattr $C$DW$70, DW_AT_decl_file("../Drivers/rit128x96x4.c")
    1260                            .dwattr $C$DW$70, DW_AT_decl_line(0x1bf)
    1261                            .dwattr $C$DW$70, DW_AT_decl_column(0x01)
    1262                            .dwattr $C$DW$70, DW_AT_TI_max_frame_size(0x10)
    1263                            .dwpsn  file "../Drivers/rit128x96x4.c",line 448,column 1,is_stmt,address RIT128x96x4Clear,isa
    1264                    
    1265                            .dwfde $C$DW$CIE, RIT128x96x4Clear
TI ARM Assembler PC v5.0.4 Mon Apr 28 11:29:12 2014

Tools Copyright (c) 1996-2013 Texas Instruments Incorporated
rit128x96x4.asm                                                      PAGE   24

    1266                    $C$DW$71        .dwtag  DW_TAG_variable, DW_AT_name("pucCommand1")
    1267                            .dwattr $C$DW$71, DW_AT_TI_symbol_name("pucCommand1$1")
    1268                            .dwattr $C$DW$71, DW_AT_type(*$C$DW$T$47)
    1269                            .dwattr $C$DW$71, DW_AT_location[DW_OP_addr pucCommand1$1]
    1270                    $C$DW$72        .dwtag  DW_TAG_variable, DW_AT_name("pucCommand2")
    1271                            .dwattr $C$DW$72, DW_AT_TI_symbol_name("pucCommand2$2")
    1272                            .dwattr $C$DW$72, DW_AT_type(*$C$DW$T$47)
    1273                            .dwattr $C$DW$72, DW_AT_location[DW_OP_addr pucCommand2$2]
    1274                    
    1275                    ;*****************************************************************************
    1276                    ;* FUNCTION NAME: RIT128x96x4Clear                                           *
    1277                    ;*                                                                           *
    1278                    ;*   Regs Modified     : A1,A2,A3,A4,V9,SP,LR,SR                             *
    1279                    ;*   Regs Used         : A1,A2,A3,A4,V9,SP,LR,SR                             *
    1280                    ;*   Local Frame Size  : 0 Args + 8 Auto + 4 Save = 12 byte                  *
    1281                    ;*****************************************************************************
    1282 00000108           RIT128x96x4Clear:
    1283                    ;* --------------------------------------------------------------------------*
    1284                            .dwcfi  cfa_offset, 0
    1285 00000108 B50E              PUSH      {A2, A3, A4, LR}      ; [DPU_3_PIPE]  ; [ORIG 16-BIT INS]
    1286                            .dwcfi  cfa_offset, 4
    1287                            .dwcfi  save_reg_to_mem, 14, -4
    1288                            .dwcfi  cfa_offset, 8
    1289                            .dwcfi  save_reg_to_mem, 3, -8
    1290                            .dwcfi  cfa_offset, 12
    1291                            .dwcfi  save_reg_to_mem, 2, -12
    1292                            .dwcfi  cfa_offset, 16
    1293                            .dwcfi  save_reg_to_mem, 1, -16
    1294                            .dwcfi  cfa_offset, 16
    1295                    $C$DW$73        .dwtag  DW_TAG_variable, DW_AT_name("ulRow")
    1296                            .dwattr $C$DW$73, DW_AT_TI_symbol_name("ulRow")
    1297                            .dwattr $C$DW$73, DW_AT_type(*$C$DW$T$13)
    1298                            .dwattr $C$DW$73, DW_AT_location[DW_OP_breg13 0]
    1299                    $C$DW$74        .dwtag  DW_TAG_variable, DW_AT_name("ulColumn")
    1300                            .dwattr $C$DW$74, DW_AT_TI_symbol_name("ulColumn")
    1301                            .dwattr $C$DW$74, DW_AT_type(*$C$DW$T$13)
    1302                            .dwattr $C$DW$74, DW_AT_location[DW_OP_breg13 4]
    1303                            .dwpsn  file "../Drivers/rit128x96x4.c",line 456,column 5,is_stmt,isa 1
    1304 0000010a 4988              LDR       A2, $C$CON5           ; [DPU_3_PIPE] |456|  ; [ORIG 16-BIT INS]
    1305 0000010c 2000              MOVS      A1, #0                ; [DPU_3_PIPE] |456|  ; [ORIG 16-BIT INS]
    1306 0000010e 6008              STR       A1, [A2, #0]          ; [DPU_3_PIPE] |456|  ; [ORIG 16-BIT INS]
    1307                            .dwpsn  file "../Drivers/rit128x96x4.c",line 457,column 5,is_stmt,isa 1
    1308 00000110 4987              LDR       A2, $C$CON6           ; [DPU_3_PIPE] |457|  ; [ORIG 16-BIT INS]
    1309 00000112 2000              MOVS      A1, #0                ; [DPU_3_PIPE] |457|  ; [ORIG 16-BIT INS]
    1310 00000114 6008              STR       A1, [A2, #0]          ; [DPU_3_PIPE] |457|  ; [ORIG 16-BIT INS]
    1311                            .dwpsn  file "../Drivers/rit128x96x4.c",line 462,column 5,is_stmt,isa 1
    1312 00000116 4887              LDR       A1, $C$CON7           ; [DPU_3_PIPE] |462|  ; [ORIG 16-BIT INS]
    1313 00000118 2103              MOVS      A2, #3                ; [DPU_3_PIPE] |462|  ; [ORIG 16-BIT INS]
    1314                    $C$DW$75        .dwtag  DW_TAG_TI_branch
    1315                            .dwattr $C$DW$75, DW_AT_low_pc(0x00)
    1316                            .dwattr $C$DW$75, DW_AT_name("RITWriteCommand")
    1317                            .dwattr $C$DW$75, DW_AT_TI_call
    1318 0000011a FF71F7FF          BL        RITWriteCommand       ; [DPU_3_PIPE] |462|  ; [KEEP 32-BIT INS]
    1319                            ; CALL OCCURS {RITWriteCommand }  ; [] |462| 
    1320                            .dwpsn  file "../Drivers/rit128x96x4.c",line 463,column 5,is_stmt,isa 1
TI ARM Assembler PC v5.0.4 Mon Apr 28 11:29:12 2014

Tools Copyright (c) 1996-2013 Texas Instruments Incorporated
rit128x96x4.asm                                                      PAGE   25

    1321 0000011e 4886              LDR       A1, $C$CON8           ; [DPU_3_PIPE] |463|  ; [ORIG 16-BIT INS]
    1322 00000120 2103              MOVS      A2, #3                ; [DPU_3_PIPE] |463|  ; [ORIG 16-BIT INS]
    1323                    $C$DW$76        .dwtag  DW_TAG_TI_branch
    1324                            .dwattr $C$DW$76, DW_AT_low_pc(0x00)
    1325                            .dwattr $C$DW$76, DW_AT_name("RITWriteCommand")
    1326                            .dwattr $C$DW$76, DW_AT_TI_call
    1327 00000122 FF6DF7FF          BL        RITWriteCommand       ; [DPU_3_PIPE] |463|  ; [KEEP 32-BIT INS]
    1328                            ; CALL OCCURS {RITWriteCommand }  ; [] |463| 
    1329                            .dwpsn  file "../Drivers/rit128x96x4.c",line 464,column 5,is_stmt,isa 1
    1330 00000126 4885              LDR       A1, $C$CON9           ; [DPU_3_PIPE] |464|  ; [ORIG 16-BIT INS]
    1331 00000128 2102              MOVS      A2, #2                ; [DPU_3_PIPE] |464|  ; [ORIG 16-BIT INS]
    1332                    $C$DW$77        .dwtag  DW_TAG_TI_branch
    1333                            .dwattr $C$DW$77, DW_AT_low_pc(0x00)
    1334                            .dwattr $C$DW$77, DW_AT_name("RITWriteCommand")
    1335                            .dwattr $C$DW$77, DW_AT_TI_call
    1336 0000012a FF69F7FF          BL        RITWriteCommand       ; [DPU_3_PIPE] |464|  ; [KEEP 32-BIT INS]
    1337                            ; CALL OCCURS {RITWriteCommand }  ; [] |464| 
    1338                            .dwpsn  file "../Drivers/rit128x96x4.c",line 470,column 9,is_stmt,isa 1
    1339 0000012e 2000              MOVS      A1, #0                ; [DPU_3_PIPE] |470|  ; [ORIG 16-BIT INS]
    1340 00000130 9000              STR       A1, [SP, #0]          ; [DPU_3_PIPE] |470|  ; [ORIG 16-BIT INS]
    1341                            .dwpsn  file "../Drivers/rit128x96x4.c",line 470,column 20,is_stmt,isa 1
    1342 00000132 9800              LDR       A1, [SP, #0]          ; [DPU_3_PIPE] |470|  ; [ORIG 16-BIT INS]
    1343 00000134 2860              CMP       A1, #96               ; [DPU_3_PIPE] |470|  ; [ORIG 16-BIT INS]
    1344 00000136 D214              BCS       ||$C$L12||            ; [DPU_3_PIPE] |470|  ; [ORIG 16-BIT INS]
    1345                            ; BRANCHCC OCCURS {||$C$L12||}   ; [] |470| 
    1346                    ;* --------------------------------------------------------------------------*
    1347                    ;*   BEGIN LOOP ||$C$L9||
    1348                    ;*
    1349                    ;*   Loop source line                : 470
    1350                    ;*   Loop closing brace source line  : 485
    1351                    ;*   Known Minimum Trip Count        : 1
    1352                    ;*   Known Maximum Trip Count        : 4294967295
    1353                    ;*   Known Max Trip Count Factor     : 1
    1354                    ;* --------------------------------------------------------------------------*
    1355 00000138           ||$C$L9||:    
    1356 00000138           $C$DW$L$RIT128x96x4Clear$2$B:
    1357                            .dwpsn  file "../Drivers/rit128x96x4.c",line 477,column 13,is_stmt,isa 1
    1358 00000138 2000              MOVS      A1, #0                ; [DPU_3_PIPE] |477|  ; [ORIG 16-BIT INS]
    1359 0000013a 9001              STR       A1, [SP, #4]          ; [DPU_3_PIPE] |477|  ; [ORIG 16-BIT INS]
    1360                            .dwpsn  file "../Drivers/rit128x96x4.c",line 477,column 27,is_stmt,isa 1
    1361 0000013c 9801              LDR       A1, [SP, #4]          ; [DPU_3_PIPE] |477|  ; [ORIG 16-BIT INS]
    1362 0000013e 2880              CMP       A1, #128              ; [DPU_3_PIPE] |477|  ; [ORIG 16-BIT INS]
    1363 00000140 D209              BCS       ||$C$L11||            ; [DPU_3_PIPE] |477|  ; [ORIG 16-BIT INS]
    1364                            ; BRANCHCC OCCURS {||$C$L11||}   ; [] |477| 
    1365 00000142           $C$DW$L$RIT128x96x4Clear$2$E:
    1366                    ;* --------------------------------------------------------------------------*
    1367                    ;*   BEGIN LOOP ||$C$L10||
    1368                    ;*
    1369                    ;*   Loop source line                : 477
    1370                    ;*   Loop closing brace source line  : 484
    1371                    ;*   Known Minimum Trip Count        : 1
    1372                    ;*   Known Maximum Trip Count        : 4294967295
    1373                    ;*   Known Max Trip Count Factor     : 1
    1374                    ;* --------------------------------------------------------------------------*
    1375 00000142           ||$C$L10||:    
TI ARM Assembler PC v5.0.4 Mon Apr 28 11:29:12 2014

Tools Copyright (c) 1996-2013 Texas Instruments Incorporated
rit128x96x4.asm                                                      PAGE   26

    1376 00000142           $C$DW$L$RIT128x96x4Clear$3$B:
    1377                            .dwpsn  file "../Drivers/rit128x96x4.c",line 483,column 13,is_stmt,isa 1
    1378 00000142 487A              LDR       A1, $C$CON5           ; [DPU_3_PIPE] |483|  ; [ORIG 16-BIT INS]
    1379 00000144 2108              MOVS      A2, #8                ; [DPU_3_PIPE] |483|  ; [ORIG 16-BIT INS]
    1380                    $C$DW$78        .dwtag  DW_TAG_TI_branch
    1381                            .dwattr $C$DW$78, DW_AT_low_pc(0x00)
    1382                            .dwattr $C$DW$78, DW_AT_name("RITWriteData")
    1383                            .dwattr $C$DW$78, DW_AT_TI_call
    1384 00000146 FF9DF7FF          BL        RITWriteData          ; [DPU_3_PIPE] |483|  ; [KEEP 32-BIT INS]
    1385                            ; CALL OCCURS {RITWriteData }    ; [] |483| 
    1386                            .dwpsn  file "../Drivers/rit128x96x4.c",line 477,column 43,is_stmt,isa 1
    1387 0000014a 9801              LDR       A1, [SP, #4]          ; [DPU_3_PIPE] |477|  ; [ORIG 16-BIT INS]
    1388 0000014c 3010              ADDS      A1, A1, #16           ; [DPU_3_PIPE] |477|  ; [ORIG 16-BIT INS]
    1389 0000014e 9001              STR       A1, [SP, #4]          ; [DPU_3_PIPE] |477|  ; [ORIG 16-BIT INS]
    1390                            .dwpsn  file "../Drivers/rit128x96x4.c",line 477,column 27,is_stmt,isa 1
    1391 00000150 9801              LDR       A1, [SP, #4]          ; [DPU_3_PIPE] |477|  ; [ORIG 16-BIT INS]
    1392 00000152 2880              CMP       A1, #128              ; [DPU_3_PIPE] |477|  ; [ORIG 16-BIT INS]
    1393 00000154 D3F5              BCC       ||$C$L10||            ; [DPU_3_PIPE] |477|  ; [ORIG 16-BIT INS]
    1394                            ; BRANCHCC OCCURS {||$C$L10||}   ; [] |477| 
    1395 00000156           $C$DW$L$RIT128x96x4Clear$3$E:
    1396                    ;* --------------------------------------------------------------------------*
    1397 00000156           ||$C$L11||:    
    1398 00000156           $C$DW$L$RIT128x96x4Clear$4$B:
    1399                            .dwpsn  file "../Drivers/rit128x96x4.c",line 470,column 32,is_stmt,isa 1
    1400 00000156 9800              LDR       A1, [SP, #0]          ; [DPU_3_PIPE] |470|  ; [ORIG 16-BIT INS]
    1401 00000158 1C40              ADDS      A1, A1, #1            ; [DPU_3_PIPE] |470|  ; [ORIG 16-BIT INS]
    1402 0000015a 9000              STR       A1, [SP, #0]          ; [DPU_3_PIPE] |470|  ; [ORIG 16-BIT INS]
    1403                            .dwpsn  file "../Drivers/rit128x96x4.c",line 470,column 20,is_stmt,isa 1
    1404 0000015c 9800              LDR       A1, [SP, #0]          ; [DPU_3_PIPE] |470|  ; [ORIG 16-BIT INS]
    1405 0000015e 2860              CMP       A1, #96               ; [DPU_3_PIPE] |470|  ; [ORIG 16-BIT INS]
    1406 00000160 D3EA              BCC       ||$C$L9||             ; [DPU_3_PIPE] |470|  ; [ORIG 16-BIT INS]
    1407                            ; BRANCHCC OCCURS {||$C$L9||}    ; [] |470| 
    1408 00000162           $C$DW$L$RIT128x96x4Clear$4$E:
    1409                    ;* --------------------------------------------------------------------------*
    1410                            .dwpsn  file "../Drivers/rit128x96x4.c",line 486,column 1,is_stmt,isa 1
    1411                    ;* --------------------------------------------------------------------------*
    1412 00000162           ||$C$L12||:    
    1413                            .dwcfi  cfa_offset, 16
    1414                    $C$DW$79        .dwtag  DW_TAG_TI_branch
    1415                            .dwattr $C$DW$79, DW_AT_low_pc(0x00)
    1416                            .dwattr $C$DW$79, DW_AT_TI_return
    1417 00000162 BD0E              POP       {A2, A3, A4, PC}      ; [DPU_3_PIPE]  ; [ORIG 16-BIT INS]
    1418                            ; BRANCH OCCURS                  ; [] 
    1419                    
    1420                    $C$DW$80        .dwtag  DW_TAG_TI_loop
    1421                            .dwattr $C$DW$80, DW_AT_name("H:\EECS_388\TI_ARM_Project\FreeRTOS_IntTimer\Debug\rit128x96x4.a
    1422                            .dwattr $C$DW$80, DW_AT_TI_begin_file("../Drivers/rit128x96x4.c")
    1423                            .dwattr $C$DW$80, DW_AT_TI_begin_line(0x1d6)
    1424                            .dwattr $C$DW$80, DW_AT_TI_end_line(0x1e5)
    1425                    $C$DW$81        .dwtag  DW_TAG_TI_loop_range
    1426                            .dwattr $C$DW$81, DW_AT_low_pc($C$DW$L$RIT128x96x4Clear$2$B)
    1427                            .dwattr $C$DW$81, DW_AT_high_pc($C$DW$L$RIT128x96x4Clear$2$E)
    1428                    $C$DW$82        .dwtag  DW_TAG_TI_loop_range
    1429                            .dwattr $C$DW$82, DW_AT_low_pc($C$DW$L$RIT128x96x4Clear$4$B)
    1430                            .dwattr $C$DW$82, DW_AT_high_pc($C$DW$L$RIT128x96x4Clear$4$E)
TI ARM Assembler PC v5.0.4 Mon Apr 28 11:29:12 2014

Tools Copyright (c) 1996-2013 Texas Instruments Incorporated
rit128x96x4.asm                                                      PAGE   27

    1431                    
    1432                    $C$DW$83        .dwtag  DW_TAG_TI_loop
    1433                            .dwattr $C$DW$83, DW_AT_name("H:\EECS_388\TI_ARM_Project\FreeRTOS_IntTimer\Debug\rit128x96x4.a
    1434                            .dwattr $C$DW$83, DW_AT_TI_begin_file("../Drivers/rit128x96x4.c")
    1435                            .dwattr $C$DW$83, DW_AT_TI_begin_line(0x1dd)
    1436                            .dwattr $C$DW$83, DW_AT_TI_end_line(0x1e4)
    1437                    $C$DW$84        .dwtag  DW_TAG_TI_loop_range
    1438                            .dwattr $C$DW$84, DW_AT_low_pc($C$DW$L$RIT128x96x4Clear$3$B)
    1439                            .dwattr $C$DW$84, DW_AT_high_pc($C$DW$L$RIT128x96x4Clear$3$E)
    1440                            .dwendtag $C$DW$83
    1441                    
    1442                            .dwendtag $C$DW$80
    1443                    
    1444                            .dwattr $C$DW$70, DW_AT_TI_end_file("../Drivers/rit128x96x4.c")
    1445                            .dwattr $C$DW$70, DW_AT_TI_end_line(0x1e6)
    1446                            .dwattr $C$DW$70, DW_AT_TI_end_column(0x01)
    1447                            .dwendentry
    1448                            .dwendtag $C$DW$70
    1449                    
    1450                    ;******************************************************************************
    1451                    ;* CONSTANT TABLE                                                             *
    1452                    ;******************************************************************************
    1453 00000164                   .sect   ".text"
    1454                            .align  4
    1455 00000164 00000000! ||$C$CON1||:    .field  g_ulSSIFlags,32
    1456                            .align  4
    1457 00000168 02000004  ||$C$CON2||:    .field  33554436,32
    1458                            .align  4
    1459 0000016c 40008000  ||$C$CON3||:    .field  1073774592,32
    1460                            .align  4
    1461 00000170 40027000  ||$C$CON4||:    .field  1073901568,32
    1462 00000174                   .sect   ".text"
    1463                            .clink
    1464                            .thumbfunc RIT128x96x4StringDraw
    1465 00000174                   .thumb
    1466                            .global RIT128x96x4StringDraw
    1467                    
    1468                    $C$DW$85        .dwtag  DW_TAG_subprogram, DW_AT_name("RIT128x96x4StringDraw")
    1469                            .dwattr $C$DW$85, DW_AT_low_pc(RIT128x96x4StringDraw)
    1470                            .dwattr $C$DW$85, DW_AT_high_pc(0x00)
    1471                            .dwattr $C$DW$85, DW_AT_TI_symbol_name("RIT128x96x4StringDraw")
    1472                            .dwattr $C$DW$85, DW_AT_external
    1473                            .dwattr $C$DW$85, DW_AT_TI_begin_file("../Drivers/rit128x96x4.c")
    1474                            .dwattr $C$DW$85, DW_AT_TI_begin_line(0x206)
    1475                            .dwattr $C$DW$85, DW_AT_TI_begin_column(0x01)
    1476                            .dwattr $C$DW$85, DW_AT_decl_file("../Drivers/rit128x96x4.c")
    1477                            .dwattr $C$DW$85, DW_AT_decl_line(0x206)
    1478                            .dwattr $C$DW$85, DW_AT_decl_column(0x01)
    1479                            .dwattr $C$DW$85, DW_AT_TI_max_frame_size(0x20)
    1480                            .dwpsn  file "../Drivers/rit128x96x4.c",line 520,column 1,is_stmt,address RIT128x96x4StringDra
    1481                    
    1482                            .dwfde $C$DW$CIE, RIT128x96x4StringDraw
    1483                    $C$DW$86        .dwtag  DW_TAG_formal_parameter, DW_AT_name("pcStr")
    1484                            .dwattr $C$DW$86, DW_AT_TI_symbol_name("pcStr")
    1485                            .dwattr $C$DW$86, DW_AT_type(*$C$DW$T$39)
TI ARM Assembler PC v5.0.4 Mon Apr 28 11:29:12 2014

Tools Copyright (c) 1996-2013 Texas Instruments Incorporated
rit128x96x4.asm                                                      PAGE   28

    1486                            .dwattr $C$DW$86, DW_AT_location[DW_OP_reg0]
    1487                    $C$DW$87        .dwtag  DW_TAG_formal_parameter, DW_AT_name("ulX")
    1488                            .dwattr $C$DW$87, DW_AT_TI_symbol_name("ulX")
    1489                            .dwattr $C$DW$87, DW_AT_type(*$C$DW$T$13)
    1490                            .dwattr $C$DW$87, DW_AT_location[DW_OP_reg1]
    1491                    $C$DW$88        .dwtag  DW_TAG_formal_parameter, DW_AT_name("ulY")
    1492                            .dwattr $C$DW$88, DW_AT_TI_symbol_name("ulY")
    1493                            .dwattr $C$DW$88, DW_AT_type(*$C$DW$T$13)
    1494                            .dwattr $C$DW$88, DW_AT_location[DW_OP_reg2]
    1495                    $C$DW$89        .dwtag  DW_TAG_formal_parameter, DW_AT_name("ucLevel")
    1496                            .dwattr $C$DW$89, DW_AT_TI_symbol_name("ucLevel")
    1497                            .dwattr $C$DW$89, DW_AT_type(*$C$DW$T$6)
    1498                            .dwattr $C$DW$89, DW_AT_location[DW_OP_reg3]
    1499                    
    1500                    ;*****************************************************************************
    1501                    ;* FUNCTION NAME: RIT128x96x4StringDraw                                      *
    1502                    ;*                                                                           *
    1503                    ;*   Regs Modified     : A1,A2,A3,A4,V9,SP,LR,SR                             *
    1504                    ;*   Regs Used         : A1,A2,A3,A4,V9,SP,LR,SR                             *
    1505                    ;*   Local Frame Size  : 0 Args + 28 Auto + 4 Save = 32 byte                 *
    1506                    ;*****************************************************************************
    1507 00000174           RIT128x96x4StringDraw:
    1508                    ;* --------------------------------------------------------------------------*
    1509                            .dwcfi  cfa_offset, 0
    1510 00000174 B500              PUSH      {LR}                  ; [DPU_3_PIPE]  ; [ORIG 16-BIT INS]
    1511                            .dwcfi  cfa_offset, 4
    1512                            .dwcfi  save_reg_to_mem, 14, -4
    1513 00000176 0D1CF1AD          SUB       SP, SP, #28           ; [DPU_3_PIPE]  ; [KEEP 32-BIT INS]
    1514                            .dwcfi  cfa_offset, 32
    1515                    $C$DW$90        .dwtag  DW_TAG_variable, DW_AT_name("pcStr")
    1516                            .dwattr $C$DW$90, DW_AT_TI_symbol_name("pcStr")
    1517                            .dwattr $C$DW$90, DW_AT_type(*$C$DW$T$39)
    1518                            .dwattr $C$DW$90, DW_AT_location[DW_OP_breg13 0]
    1519                    $C$DW$91        .dwtag  DW_TAG_variable, DW_AT_name("ulX")
    1520                            .dwattr $C$DW$91, DW_AT_TI_symbol_name("ulX")
    1521                            .dwattr $C$DW$91, DW_AT_type(*$C$DW$T$13)
    1522                            .dwattr $C$DW$91, DW_AT_location[DW_OP_breg13 4]
    1523                    $C$DW$92        .dwtag  DW_TAG_variable, DW_AT_name("ulY")
    1524                            .dwattr $C$DW$92, DW_AT_TI_symbol_name("ulY")
    1525                            .dwattr $C$DW$92, DW_AT_type(*$C$DW$T$13)
    1526                            .dwattr $C$DW$92, DW_AT_location[DW_OP_breg13 8]
    1527                    $C$DW$93        .dwtag  DW_TAG_variable, DW_AT_name("ucLevel")
    1528                            .dwattr $C$DW$93, DW_AT_TI_symbol_name("ucLevel")
    1529                            .dwattr $C$DW$93, DW_AT_type(*$C$DW$T$6)
    1530                            .dwattr $C$DW$93, DW_AT_location[DW_OP_breg13 12]
    1531                    $C$DW$94        .dwtag  DW_TAG_variable, DW_AT_name("ulIdx1")
    1532                            .dwattr $C$DW$94, DW_AT_TI_symbol_name("ulIdx1")
    1533                            .dwattr $C$DW$94, DW_AT_type(*$C$DW$T$13)
    1534                            .dwattr $C$DW$94, DW_AT_location[DW_OP_breg13 16]
    1535                    $C$DW$95        .dwtag  DW_TAG_variable, DW_AT_name("ulIdx2")
    1536                            .dwattr $C$DW$95, DW_AT_TI_symbol_name("ulIdx2")
    1537                            .dwattr $C$DW$95, DW_AT_type(*$C$DW$T$13)
    1538                            .dwattr $C$DW$95, DW_AT_location[DW_OP_breg13 20]
    1539                    $C$DW$96        .dwtag  DW_TAG_variable, DW_AT_name("ucTemp")
    1540                            .dwattr $C$DW$96, DW_AT_TI_symbol_name("ucTemp")
TI ARM Assembler PC v5.0.4 Mon Apr 28 11:29:12 2014

Tools Copyright (c) 1996-2013 Texas Instruments Incorporated
rit128x96x4.asm                                                      PAGE   29

    1541                            .dwattr $C$DW$96, DW_AT_type(*$C$DW$T$6)
    1542                            .dwattr $C$DW$96, DW_AT_location[DW_OP_breg13 24]
    1543 0000017a 300CF88D          STRB      A4, [SP, #12]         ; [DPU_3_PIPE] |520|  ; [KEEP 32-BIT INS]
    1544 0000017e 9202              STR       A3, [SP, #8]          ; [DPU_3_PIPE] |520|  ; [ORIG 16-BIT INS]
    1545 00000180 9101              STR       A2, [SP, #4]          ; [DPU_3_PIPE] |520|  ; [ORIG 16-BIT INS]
    1546 00000182 9000              STR       A1, [SP, #0]          ; [DPU_3_PIPE] |520|  ; [ORIG 16-BIT INS]
    1547                            .dwpsn  file "../Drivers/rit128x96x4.c",line 536,column 5,is_stmt,isa 1
    1548 00000184 4969              LDR       A2, $C$CON5           ; [DPU_3_PIPE] |536|  ; [ORIG 16-BIT INS]
    1549 00000186 2015              MOVS      A1, #21               ; [DPU_3_PIPE] |536|  ; [ORIG 16-BIT INS]
    1550 00000188 7008              STRB      A1, [A2, #0]          ; [DPU_3_PIPE] |536|  ; [ORIG 16-BIT INS]
    1551                            .dwpsn  file "../Drivers/rit128x96x4.c",line 537,column 5,is_stmt,isa 1
    1552 0000018a 499B              LDR       A2, $C$CON10          ; [DPU_3_PIPE] |537|  ; [ORIG 16-BIT INS]
    1553 0000018c 9801              LDR       A1, [SP, #4]          ; [DPU_3_PIPE] |537|  ; [ORIG 16-BIT INS]
    1554 0000018e 0840              LSRS      A1, A1, #1            ; [DPU_3_PIPE] |537|  ; [ORIG 16-BIT INS]
    1555 00000190 7008              STRB      A1, [A2, #0]          ; [DPU_3_PIPE] |537|  ; [ORIG 16-BIT INS]
    1556                            .dwpsn  file "../Drivers/rit128x96x4.c",line 538,column 5,is_stmt,isa 1
    1557 00000192 499A              LDR       A2, $C$CON11          ; [DPU_3_PIPE] |538|  ; [ORIG 16-BIT INS]
    1558 00000194 203F              MOVS      A1, #63               ; [DPU_3_PIPE] |538|  ; [ORIG 16-BIT INS]
    1559 00000196 7008              STRB      A1, [A2, #0]          ; [DPU_3_PIPE] |538|  ; [ORIG 16-BIT INS]
    1560                            .dwpsn  file "../Drivers/rit128x96x4.c",line 539,column 5,is_stmt,isa 1
    1561 00000198 4864              LDR       A1, $C$CON5           ; [DPU_3_PIPE] |539|  ; [ORIG 16-BIT INS]
    1562 0000019a 2103              MOVS      A2, #3                ; [DPU_3_PIPE] |539|  ; [ORIG 16-BIT INS]
    1563                    $C$DW$97        .dwtag  DW_TAG_TI_branch
    1564                            .dwattr $C$DW$97, DW_AT_low_pc(0x00)
    1565                            .dwattr $C$DW$97, DW_AT_name("RITWriteCommand")
    1566                            .dwattr $C$DW$97, DW_AT_TI_call
    1567 0000019c FF30F7FF          BL        RITWriteCommand       ; [DPU_3_PIPE] |539|  ; [KEEP 32-BIT INS]
    1568                            ; CALL OCCURS {RITWriteCommand }  ; [] |539| 
    1569                            .dwpsn  file "../Drivers/rit128x96x4.c",line 540,column 5,is_stmt,isa 1
    1570 000001a0 4962              LDR       A2, $C$CON5           ; [DPU_3_PIPE] |540|  ; [ORIG 16-BIT INS]
    1571 000001a2 2075              MOVS      A1, #117              ; [DPU_3_PIPE] |540|  ; [ORIG 16-BIT INS]
    1572 000001a4 7008              STRB      A1, [A2, #0]          ; [DPU_3_PIPE] |540|  ; [ORIG 16-BIT INS]
    1573                            .dwpsn  file "../Drivers/rit128x96x4.c",line 541,column 5,is_stmt,isa 1
    1574 000001a6 4994              LDR       A2, $C$CON10          ; [DPU_3_PIPE] |541|  ; [ORIG 16-BIT INS]
    1575 000001a8 0008F89D          LDRB      A1, [SP, #8]          ; [DPU_3_PIPE] |541|  ; [KEEP 32-BIT INS]
    1576 000001ac 7008              STRB      A1, [A2, #0]          ; [DPU_3_PIPE] |541|  ; [ORIG 16-BIT INS]
    1577                            .dwpsn  file "../Drivers/rit128x96x4.c",line 542,column 5,is_stmt,isa 1
    1578 000001ae 4993              LDR       A2, $C$CON11          ; [DPU_3_PIPE] |542|  ; [ORIG 16-BIT INS]
    1579 000001b0 9802              LDR       A1, [SP, #8]          ; [DPU_3_PIPE] |542|  ; [ORIG 16-BIT INS]
    1580 000001b2 1DC0              ADDS      A1, A1, #7            ; [DPU_3_PIPE] |542|  ; [ORIG 16-BIT INS]
    1581 000001b4 7008              STRB      A1, [A2, #0]          ; [DPU_3_PIPE] |542|  ; [ORIG 16-BIT INS]
    1582                            .dwpsn  file "../Drivers/rit128x96x4.c",line 543,column 5,is_stmt,isa 1
    1583 000001b6 485D              LDR       A1, $C$CON5           ; [DPU_3_PIPE] |543|  ; [ORIG 16-BIT INS]
    1584 000001b8 2103              MOVS      A2, #3                ; [DPU_3_PIPE] |543|  ; [ORIG 16-BIT INS]
    1585                    $C$DW$98        .dwtag  DW_TAG_TI_branch
    1586                            .dwattr $C$DW$98, DW_AT_low_pc(0x00)
    1587                            .dwattr $C$DW$98, DW_AT_name("RITWriteCommand")
    1588                            .dwattr $C$DW$98, DW_AT_TI_call
    1589 000001ba FF21F7FF          BL        RITWriteCommand       ; [DPU_3_PIPE] |543|  ; [KEEP 32-BIT INS]
    1590                            ; CALL OCCURS {RITWriteCommand }  ; [] |543| 
    1591                            .dwpsn  file "../Drivers/rit128x96x4.c",line 544,column 5,is_stmt,isa 1
    1592 000001be 4890              LDR       A1, $C$CON12          ; [DPU_3_PIPE] |544|  ; [ORIG 16-BIT INS]
    1593 000001c0 2102              MOVS      A2, #2                ; [DPU_3_PIPE] |544|  ; [ORIG 16-BIT INS]
    1594                    $C$DW$99        .dwtag  DW_TAG_TI_branch
    1595                            .dwattr $C$DW$99, DW_AT_low_pc(0x00)
TI ARM Assembler PC v5.0.4 Mon Apr 28 11:29:12 2014

Tools Copyright (c) 1996-2013 Texas Instruments Incorporated
rit128x96x4.asm                                                      PAGE   30

    1596                            .dwattr $C$DW$99, DW_AT_name("RITWriteCommand")
    1597                            .dwattr $C$DW$99, DW_AT_TI_call
    1598 000001c2 FF1DF7FF          BL        RITWriteCommand       ; [DPU_3_PIPE] |544|  ; [KEEP 32-BIT INS]
    1599                            ; CALL OCCURS {RITWriteCommand }  ; [] |544| 
    1600                            .dwpsn  file "../Drivers/rit128x96x4.c",line 550,column 5,is_stmt,isa 1
    1601 000001c6 E067              B         ||$C$L21||            ; [DPU_3_PIPE] |550|  ; [ORIG 16-BIT INS]
    1602                            ; BRANCH OCCURS {||$C$L21||}     ; [] |550| 
    1603                    ;* --------------------------------------------------------------------------*
    1604 000001c8           ||$C$L13||:    
    1605 000001c8           $C$DW$L$RIT128x96x4StringDraw$2$B:
    1606                            .dwpsn  file "../Drivers/rit128x96x4.c",line 556,column 9,is_stmt,isa 1
    1607 000001c8 9900              LDR       A2, [SP, #0]          ; [DPU_3_PIPE] |556|  ; [ORIG 16-BIT INS]
    1608 000001ca 0B01F811          LDRB      A1, [A2], #1          ; [DPU_3_PIPE] |556|  ; [KEEP 32-BIT INS]
    1609 000001ce 9100              STR       A2, [SP, #0]          ; [DPU_3_PIPE] |556|  ; [ORIG 16-BIT INS]
    1610 000001d0 007FF000          AND       A1, A1, #127          ; [DPU_3_PIPE] |556|  ; [KEEP 32-BIT INS]
    1611 000001d4 0018F88D          STRB      A1, [SP, #24]         ; [DPU_3_PIPE] |556|  ; [KEEP 32-BIT INS]
    1612                            .dwpsn  file "../Drivers/rit128x96x4.c",line 557,column 9,is_stmt,isa 1
    1613 000001d8 0018F89D          LDRB      A1, [SP, #24]         ; [DPU_3_PIPE] |557|  ; [KEEP 32-BIT INS]
    1614 000001dc 2820              CMP       A1, #32               ; [DPU_3_PIPE] |557|  ; [ORIG 16-BIT INS]
    1615 000001de DA03              BGE       ||$C$L14||            ; [DPU_3_PIPE] |557|  ; [ORIG 16-BIT INS]
    1616                            ; BRANCHCC OCCURS {||$C$L14||}   ; [] |557| 
    1617 000001e0           $C$DW$L$RIT128x96x4StringDraw$2$E:
    1618                    ;* --------------------------------------------------------------------------*
    1619 000001e0           $C$DW$L$RIT128x96x4StringDraw$3$B:
    1620                            .dwpsn  file "../Drivers/rit128x96x4.c",line 559,column 13,is_stmt,isa 1
    1621 000001e0 2000              MOVS      A1, #0                ; [DPU_3_PIPE] |559|  ; [ORIG 16-BIT INS]
    1622 000001e2 0018F88D          STRB      A1, [SP, #24]         ; [DPU_3_PIPE] |559|  ; [KEEP 32-BIT INS]
    1623                            .dwpsn  file "../Drivers/rit128x96x4.c",line 560,column 9,is_stmt,isa 1
    1624 000001e6 E004              B         ||$C$L15||            ; [DPU_3_PIPE] |560|  ; [ORIG 16-BIT INS]
    1625                            ; BRANCH OCCURS {||$C$L15||}     ; [] |560| 
    1626 000001e8           $C$DW$L$RIT128x96x4StringDraw$3$E:
    1627                    ;* --------------------------------------------------------------------------*
    1628 000001e8           ||$C$L14||:    
    1629 000001e8           $C$DW$L$RIT128x96x4StringDraw$4$B:
    1630                            .dwpsn  file "../Drivers/rit128x96x4.c",line 563,column 13,is_stmt,isa 1
    1631 000001e8 0018F89D          LDRB      A1, [SP, #24]         ; [DPU_3_PIPE] |563|  ; [KEEP 32-BIT INS]
    1632 000001ec 3820              SUBS      A1, A1, #32           ; [DPU_3_PIPE] |563|  ; [ORIG 16-BIT INS]
    1633 000001ee 0018F88D          STRB      A1, [SP, #24]         ; [DPU_3_PIPE] |563|  ; [KEEP 32-BIT INS]
    1634 000001f2           $C$DW$L$RIT128x96x4StringDraw$4$E:
    1635                    ;* --------------------------------------------------------------------------*
    1636 000001f2           ||$C$L15||:    
    1637 000001f2           $C$DW$L$RIT128x96x4StringDraw$5$B:
    1638                            .dwpsn  file "../Drivers/rit128x96x4.c",line 569,column 13,is_stmt,isa 1
    1639 000001f2 2000              MOVS      A1, #0                ; [DPU_3_PIPE] |569|  ; [ORIG 16-BIT INS]
    1640 000001f4 9004              STR       A1, [SP, #16]         ; [DPU_3_PIPE] |569|  ; [ORIG 16-BIT INS]
    1641                            .dwpsn  file "../Drivers/rit128x96x4.c",line 569,column 25,is_stmt,isa 1
    1642 000001f6 9804              LDR       A1, [SP, #16]         ; [DPU_3_PIPE] |569|  ; [ORIG 16-BIT INS]
    1643 000001f8 2806              CMP       A1, #6                ; [DPU_3_PIPE] |569|  ; [ORIG 16-BIT INS]
    1644 000001fa D24D              BCS       ||$C$L21||            ; [DPU_3_PIPE] |569|  ; [ORIG 16-BIT INS]
    1645                            ; BRANCHCC OCCURS {||$C$L21||}   ; [] |569| 
    1646 000001fc           $C$DW$L$RIT128x96x4StringDraw$5$E:
    1647                    ;* --------------------------------------------------------------------------*
    1648                    ;*   BEGIN LOOP ||$C$L16||
    1649                    ;*
    1650                    ;*   Loop source line                : 569
TI ARM Assembler PC v5.0.4 Mon Apr 28 11:29:12 2014

Tools Copyright (c) 1996-2013 Texas Instruments Incorporated
rit128x96x4.asm                                                      PAGE   31

    1651                    ;*   Loop closing brace source line  : 602
    1652                    ;*   Known Minimum Trip Count        : 1
    1653                    ;*   Known Maximum Trip Count        : 4294967295
    1654                    ;*   Known Max Trip Count Factor     : 1
    1655                    ;* --------------------------------------------------------------------------*
    1656 000001fc           ||$C$L16||:    
    1657 000001fc           $C$DW$L$RIT128x96x4StringDraw$6$B:
    1658                            .dwpsn  file "../Drivers/rit128x96x4.c",line 575,column 17,is_stmt,isa 1
    1659 000001fc 2000              MOVS      A1, #0                ; [DPU_3_PIPE] |575|  ; [ORIG 16-BIT INS]
    1660 000001fe 9005              STR       A1, [SP, #20]         ; [DPU_3_PIPE] |575|  ; [ORIG 16-BIT INS]
    1661                            .dwpsn  file "../Drivers/rit128x96x4.c",line 575,column 29,is_stmt,isa 1
    1662 00000200 9805              LDR       A1, [SP, #20]         ; [DPU_3_PIPE] |575|  ; [ORIG 16-BIT INS]
    1663 00000202 2808              CMP       A1, #8                ; [DPU_3_PIPE] |575|  ; [ORIG 16-BIT INS]
    1664 00000204 D238              BCS       ||$C$L20||            ; [DPU_3_PIPE] |575|  ; [ORIG 16-BIT INS]
    1665                            ; BRANCHCC OCCURS {||$C$L20||}   ; [] |575| 
    1666 00000206           $C$DW$L$RIT128x96x4StringDraw$6$E:
    1667                    ;* --------------------------------------------------------------------------*
    1668                    ;*   BEGIN LOOP ||$C$L17||
    1669                    ;*
    1670                    ;*   Loop source line                : 575
    1671                    ;*   Loop closing brace source line  : 587
    1672                    ;*   Known Minimum Trip Count        : 1
    1673                    ;*   Known Maximum Trip Count        : 4294967295
    1674                    ;*   Known Max Trip Count Factor     : 1
    1675                    ;* --------------------------------------------------------------------------*
    1676 00000206           ||$C$L17||:    
    1677 00000206           $C$DW$L$RIT128x96x4StringDraw$7$B:
    1678                            .dwpsn  file "../Drivers/rit128x96x4.c",line 577,column 17,is_stmt,isa 1
    1679 00000206 9805              LDR       A1, [SP, #20]         ; [DPU_3_PIPE] |577|  ; [ORIG 16-BIT INS]
    1680 00000208 4A48              LDR       A3, $C$CON5           ; [DPU_3_PIPE] |577|  ; [ORIG 16-BIT INS]
    1681 0000020a 2100              MOVS      A2, #0                ; [DPU_3_PIPE] |577|  ; [ORIG 16-BIT INS]
    1682 0000020c 5411              STRB      A2, [A3, +A1]         ; [DPU_3_PIPE] |577|  ; [ORIG 16-BIT INS]
    1683                            .dwpsn  file "../Drivers/rit128x96x4.c",line 578,column 17,is_stmt,isa 1
    1684 0000020e 0018F89D          LDRB      A1, [SP, #24]         ; [DPU_3_PIPE] |578|  ; [KEEP 32-BIT INS]
    1685 00000212 497C              LDR       A2, $C$CON13          ; [DPU_3_PIPE] |578|  ; [ORIG 16-BIT INS]
    1686 00000214 0080EB00          ADD       A1, A1, A1, LSL #2    ; [DPU_3_PIPE] |578|  ; [KEEP 32-BIT INS]
    1687 00000218 1809              ADDS      A2, A2, A1            ; [DPU_3_PIPE] |578|  ; [ORIG 16-BIT INS]
    1688 0000021a 9804              LDR       A1, [SP, #16]         ; [DPU_3_PIPE] |578|  ; [ORIG 16-BIT INS]
    1689 0000021c 9A05              LDR       A3, [SP, #20]         ; [DPU_3_PIPE] |578|  ; [ORIG 16-BIT INS]
    1690 0000021e 5C41              LDRB      A2, [A1, +A2]         ; [DPU_3_PIPE] |578|  ; [ORIG 16-BIT INS]
    1691 00000220 2001              MOVS      A1, #1                ; [DPU_3_PIPE] |578|  ; [ORIG 16-BIT INS]
    1692 00000222 4090              LSLS      A1, A1, A3            ; [DPU_3_PIPE] |578|  ; [ORIG 16-BIT INS]
    1693 00000224 4208              TST       A1, A2                ; [DPU_3_PIPE] |578|  ; [ORIG 16-BIT INS]
    1694 00000226 D007              BEQ       ||$C$L18||            ; [DPU_3_PIPE] |578|  ; [ORIG 16-BIT INS]
    1695                            ; BRANCHCC OCCURS {||$C$L18||}   ; [] |578| 
    1696 00000228           $C$DW$L$RIT128x96x4StringDraw$7$E:
    1697                    ;* --------------------------------------------------------------------------*
    1698 00000228           $C$DW$L$RIT128x96x4StringDraw$8$B:
    1699                            .dwpsn  file "../Drivers/rit128x96x4.c",line 580,column 21,is_stmt,isa 1
    1700 00000228 000CF89D          LDRB      A1, [SP, #12]         ; [DPU_3_PIPE] |580|  ; [KEEP 32-BIT INS]
    1701 0000022c 9905              LDR       A2, [SP, #20]         ; [DPU_3_PIPE] |580|  ; [ORIG 16-BIT INS]
    1702 0000022e 4A3F              LDR       A3, $C$CON5           ; [DPU_3_PIPE] |580|  ; [ORIG 16-BIT INS]
    1703 00000230 0100              LSLS      A1, A1, #4            ; [DPU_3_PIPE] |580|  ; [ORIG 16-BIT INS]
    1704 00000232 00F0F000          AND       A1, A1, #240          ; [DPU_3_PIPE] |580|  ; [KEEP 32-BIT INS]
    1705 00000236 5450              STRB      A1, [A3, +A2]         ; [DPU_3_PIPE] |580|  ; [ORIG 16-BIT INS]
TI ARM Assembler PC v5.0.4 Mon Apr 28 11:29:12 2014

Tools Copyright (c) 1996-2013 Texas Instruments Incorporated
rit128x96x4.asm                                                      PAGE   32

    1706 00000238           $C$DW$L$RIT128x96x4StringDraw$8$E:
    1707                    ;* --------------------------------------------------------------------------*
    1708 00000238           ||$C$L18||:    
    1709 00000238           $C$DW$L$RIT128x96x4StringDraw$9$B:
    1710                            .dwpsn  file "../Drivers/rit128x96x4.c",line 582,column 17,is_stmt,isa 1
    1711 00000238 9804              LDR       A1, [SP, #16]         ; [DPU_3_PIPE] |582|  ; [ORIG 16-BIT INS]
    1712 0000023a 2804              CMP       A1, #4                ; [DPU_3_PIPE] |582|  ; [ORIG 16-BIT INS]
    1713 0000023c D216              BCS       ||$C$L19||            ; [DPU_3_PIPE] |582|  ; [ORIG 16-BIT INS]
    1714                            ; BRANCHCC OCCURS {||$C$L19||}   ; [] |582| 
    1715 0000023e           $C$DW$L$RIT128x96x4StringDraw$9$E:
    1716                    ;* --------------------------------------------------------------------------*
    1717 0000023e           $C$DW$L$RIT128x96x4StringDraw$10$B:
    1718 0000023e 1018F89D          LDRB      A2, [SP, #24]         ; [DPU_3_PIPE] |582|  ; [KEEP 32-BIT INS]
    1719 00000242 4870              LDR       A1, $C$CON13          ; [DPU_3_PIPE] |582|  ; [ORIG 16-BIT INS]
    1720 00000244 9A05              LDR       A3, [SP, #20]         ; [DPU_3_PIPE] |582|  ; [ORIG 16-BIT INS]
    1721 00000246 0181EB01          ADD       A2, A2, A2, LSL #2    ; [DPU_3_PIPE] |582|  ; [KEEP 32-BIT INS]
    1722 0000024a 1840              ADDS      A1, A1, A2            ; [DPU_3_PIPE] |582|  ; [ORIG 16-BIT INS]
    1723 0000024c 9904              LDR       A2, [SP, #16]         ; [DPU_3_PIPE] |582|  ; [ORIG 16-BIT INS]
    1724 0000024e 1C49              ADDS      A2, A2, #1            ; [DPU_3_PIPE] |582|  ; [ORIG 16-BIT INS]
    1725 00000250 5C09              LDRB      A2, [A2, +A1]         ; [DPU_3_PIPE] |582|  ; [ORIG 16-BIT INS]
    1726 00000252 2001              MOVS      A1, #1                ; [DPU_3_PIPE] |582|  ; [ORIG 16-BIT INS]
    1727 00000254 4090              LSLS      A1, A1, A3            ; [DPU_3_PIPE] |582|  ; [ORIG 16-BIT INS]
    1728 00000256 4208              TST       A1, A2                ; [DPU_3_PIPE] |582|  ; [ORIG 16-BIT INS]
    1729 00000258 D008              BEQ       ||$C$L19||            ; [DPU_3_PIPE] |582|  ; [ORIG 16-BIT INS]
    1730                            ; BRANCHCC OCCURS {||$C$L19||}   ; [] |582| 
    1731 0000025a           $C$DW$L$RIT128x96x4StringDraw$10$E:
    1732                    ;* --------------------------------------------------------------------------*
    1733 0000025a           $C$DW$L$RIT128x96x4StringDraw$11$B:
    1734                            .dwpsn  file "../Drivers/rit128x96x4.c",line 585,column 21,is_stmt,isa 1
    1735 0000025a 9905              LDR       A2, [SP, #20]         ; [DPU_3_PIPE] |585|  ; [ORIG 16-BIT INS]
    1736 0000025c 4A33              LDR       A3, $C$CON5           ; [DPU_3_PIPE] |585|  ; [ORIG 16-BIT INS]
    1737 0000025e 000CF89D          LDRB      A1, [SP, #12]         ; [DPU_3_PIPE] |585|  ; [KEEP 32-BIT INS]
    1738 00000262 5C8B              LDRB      A4, [A2, +A3]         ; [DPU_3_PIPE] |585|  ; [ORIG 16-BIT INS]
    1739 00000264 000FF000          AND       A1, A1, #15           ; [DPU_3_PIPE] |585|  ; [KEEP 32-BIT INS]
    1740 00000268 4318              ORRS      A1, A1, A4            ; [DPU_3_PIPE] |585|  ; [ORIG 16-BIT INS]
    1741 0000026a 5488              STRB      A1, [A2, +A3]         ; [DPU_3_PIPE] |585|  ; [ORIG 16-BIT INS]
    1742 0000026c           $C$DW$L$RIT128x96x4StringDraw$11$E:
    1743                    ;* --------------------------------------------------------------------------*
    1744 0000026c           ||$C$L19||:    
    1745 0000026c           $C$DW$L$RIT128x96x4StringDraw$12$B:
    1746                            .dwpsn  file "../Drivers/rit128x96x4.c",line 575,column 41,is_stmt,isa 1
    1747 0000026c 9805              LDR       A1, [SP, #20]         ; [DPU_3_PIPE] |575|  ; [ORIG 16-BIT INS]
    1748 0000026e 1C40              ADDS      A1, A1, #1            ; [DPU_3_PIPE] |575|  ; [ORIG 16-BIT INS]
    1749 00000270 9005              STR       A1, [SP, #20]         ; [DPU_3_PIPE] |575|  ; [ORIG 16-BIT INS]
    1750                            .dwpsn  file "../Drivers/rit128x96x4.c",line 575,column 29,is_stmt,isa 1
    1751 00000272 9805              LDR       A1, [SP, #20]         ; [DPU_3_PIPE] |575|  ; [ORIG 16-BIT INS]
    1752 00000274 2808              CMP       A1, #8                ; [DPU_3_PIPE] |575|  ; [ORIG 16-BIT INS]
    1753 00000276 D3C6              BCC       ||$C$L17||            ; [DPU_3_PIPE] |575|  ; [ORIG 16-BIT INS]
    1754                            ; BRANCHCC OCCURS {||$C$L17||}   ; [] |575| 
    1755 00000278           $C$DW$L$RIT128x96x4StringDraw$12$E:
    1756                    ;* --------------------------------------------------------------------------*
    1757 00000278           ||$C$L20||:    
    1758 00000278           $C$DW$L$RIT128x96x4StringDraw$13$B:
    1759                            .dwpsn  file "../Drivers/rit128x96x4.c",line 592,column 13,is_stmt,isa 1
    1760 00000278 482C              LDR       A1, $C$CON5           ; [DPU_3_PIPE] |592|  ; [ORIG 16-BIT INS]
TI ARM Assembler PC v5.0.4 Mon Apr 28 11:29:12 2014

Tools Copyright (c) 1996-2013 Texas Instruments Incorporated
rit128x96x4.asm                                                      PAGE   33

    1761 0000027a 2108              MOVS      A2, #8                ; [DPU_3_PIPE] |592|  ; [ORIG 16-BIT INS]
    1762                    $C$DW$100       .dwtag  DW_TAG_TI_branch
    1763                            .dwattr $C$DW$100, DW_AT_low_pc(0x00)
    1764                            .dwattr $C$DW$100, DW_AT_name("RITWriteData")
    1765                            .dwattr $C$DW$100, DW_AT_TI_call
    1766 0000027c FF02F7FF          BL        RITWriteData          ; [DPU_3_PIPE] |592|  ; [KEEP 32-BIT INS]
    1767                            ; CALL OCCURS {RITWriteData }    ; [] |592| 
    1768                            .dwpsn  file "../Drivers/rit128x96x4.c",line 593,column 13,is_stmt,isa 1
    1769 00000280 9801              LDR       A1, [SP, #4]          ; [DPU_3_PIPE] |593|  ; [ORIG 16-BIT INS]
    1770 00000282 1C80              ADDS      A1, A1, #2            ; [DPU_3_PIPE] |593|  ; [ORIG 16-BIT INS]
    1771 00000284 9001              STR       A1, [SP, #4]          ; [DPU_3_PIPE] |593|  ; [ORIG 16-BIT INS]
    1772                            .dwpsn  file "../Drivers/rit128x96x4.c",line 598,column 13,is_stmt,isa 1
    1773 00000286 9801              LDR       A1, [SP, #4]          ; [DPU_3_PIPE] |598|  ; [ORIG 16-BIT INS]
    1774 00000288 2880              CMP       A1, #128              ; [DPU_3_PIPE] |598|  ; [ORIG 16-BIT INS]
    1775 0000028a D009              BEQ       ||$C$L22||            ; [DPU_3_PIPE] |598|  ; [ORIG 16-BIT INS]
    1776                            ; BRANCHCC OCCURS {||$C$L22||}   ; [] |598| 
    1777 0000028c           $C$DW$L$RIT128x96x4StringDraw$13$E:
    1778                    ;* --------------------------------------------------------------------------*
    1779 0000028c           $C$DW$L$RIT128x96x4StringDraw$14$B:
    1780                            .dwpsn  file "../Drivers/rit128x96x4.c",line 600,column 17,is_stmt,isa 1
    1781                            .dwpsn  file "../Drivers/rit128x96x4.c",line 569,column 37,is_stmt,isa 1
    1782 0000028c 9804              LDR       A1, [SP, #16]         ; [DPU_3_PIPE] |569|  ; [ORIG 16-BIT INS]
    1783 0000028e 1C80              ADDS      A1, A1, #2            ; [DPU_3_PIPE] |569|  ; [ORIG 16-BIT INS]
    1784 00000290 9004              STR       A1, [SP, #16]         ; [DPU_3_PIPE] |569|  ; [ORIG 16-BIT INS]
    1785                            .dwpsn  file "../Drivers/rit128x96x4.c",line 569,column 25,is_stmt,isa 1
    1786 00000292 9804              LDR       A1, [SP, #16]         ; [DPU_3_PIPE] |569|  ; [ORIG 16-BIT INS]
    1787 00000294 2806              CMP       A1, #6                ; [DPU_3_PIPE] |569|  ; [ORIG 16-BIT INS]
    1788 00000296 D3B1              BCC       ||$C$L16||            ; [DPU_3_PIPE] |569|  ; [ORIG 16-BIT INS]
    1789                            ; BRANCHCC OCCURS {||$C$L16||}   ; [] |569| 
    1790 00000298           $C$DW$L$RIT128x96x4StringDraw$14$E:
    1791                    ;* --------------------------------------------------------------------------*
    1792                    ;*   BEGIN LOOP ||$C$L21||
    1793                    ;* --------------------------------------------------------------------------*
    1794 00000298           ||$C$L21||:    
    1795 00000298           $C$DW$L$RIT128x96x4StringDraw$15$B:
    1796                            .dwpsn  file "../Drivers/rit128x96x4.c",line 550,column 11,is_stmt,isa 1
    1797 00000298 9800              LDR       A1, [SP, #0]          ; [DPU_3_PIPE] |550|  ; [ORIG 16-BIT INS]
    1798 0000029a 7800              LDRB      A1, [A1, #0]          ; [DPU_3_PIPE] |550|  ; [ORIG 16-BIT INS]
    1799 0000029c 2800              CMP       A1, #0                ; [DPU_3_PIPE] |550|  ; [ORIG 16-BIT INS]
    1800 0000029e D193              BNE       ||$C$L13||            ; [DPU_3_PIPE] |550|  ; [ORIG 16-BIT INS]
    1801                            ; BRANCHCC OCCURS {||$C$L13||}   ; [] |550| 
    1802 000002a0           $C$DW$L$RIT128x96x4StringDraw$15$E:
    1803                    ;* --------------------------------------------------------------------------*
    1804                            .dwpsn  file "../Drivers/rit128x96x4.c",line 604,column 1,is_stmt,isa 1
    1805                    ;* --------------------------------------------------------------------------*
    1806 000002a0           ||$C$L22||:    
    1807 000002a0 B007              ADD       SP, SP, #28           ; [DPU_3_PIPE]  ; [ORIG 16-BIT INS]
    1808                            .dwcfi  cfa_offset, 4
    1809                    $C$DW$101       .dwtag  DW_TAG_TI_branch
    1810                            .dwattr $C$DW$101, DW_AT_low_pc(0x00)
    1811                            .dwattr $C$DW$101, DW_AT_TI_return
    1812 000002a2 BD00              POP       {PC}                  ; [DPU_3_PIPE]  ; [ORIG 16-BIT INS]
    1813                            ; BRANCH OCCURS                  ; [] 
    1814                    
    1815                    $C$DW$102       .dwtag  DW_TAG_TI_loop
TI ARM Assembler PC v5.0.4 Mon Apr 28 11:29:12 2014

Tools Copyright (c) 1996-2013 Texas Instruments Incorporated
rit128x96x4.asm                                                      PAGE   34

    1816                            .dwattr $C$DW$102, DW_AT_name("H:\EECS_388\TI_ARM_Project\FreeRTOS_IntTimer\Debug\rit128x96x4.
    1817                            .dwattr $C$DW$102, DW_AT_TI_begin_file("../Drivers/rit128x96x4.c")
    1818                            .dwattr $C$DW$102, DW_AT_TI_begin_line(0x226)
    1819                            .dwattr $C$DW$102, DW_AT_TI_end_line(0x239)
    1820                    $C$DW$103       .dwtag  DW_TAG_TI_loop_range
    1821                            .dwattr $C$DW$103, DW_AT_low_pc($C$DW$L$RIT128x96x4StringDraw$15$B)
    1822                            .dwattr $C$DW$103, DW_AT_high_pc($C$DW$L$RIT128x96x4StringDraw$15$E)
    1823                    $C$DW$104       .dwtag  DW_TAG_TI_loop_range
    1824                            .dwattr $C$DW$104, DW_AT_low_pc($C$DW$L$RIT128x96x4StringDraw$2$B)
    1825                            .dwattr $C$DW$104, DW_AT_high_pc($C$DW$L$RIT128x96x4StringDraw$2$E)
    1826                    $C$DW$105       .dwtag  DW_TAG_TI_loop_range
    1827                            .dwattr $C$DW$105, DW_AT_low_pc($C$DW$L$RIT128x96x4StringDraw$3$B)
    1828                            .dwattr $C$DW$105, DW_AT_high_pc($C$DW$L$RIT128x96x4StringDraw$3$E)
    1829                    $C$DW$106       .dwtag  DW_TAG_TI_loop_range
    1830                            .dwattr $C$DW$106, DW_AT_low_pc($C$DW$L$RIT128x96x4StringDraw$4$B)
    1831                            .dwattr $C$DW$106, DW_AT_high_pc($C$DW$L$RIT128x96x4StringDraw$4$E)
    1832                    $C$DW$107       .dwtag  DW_TAG_TI_loop_range
    1833                            .dwattr $C$DW$107, DW_AT_low_pc($C$DW$L$RIT128x96x4StringDraw$5$B)
    1834                            .dwattr $C$DW$107, DW_AT_high_pc($C$DW$L$RIT128x96x4StringDraw$5$E)
    1835                    
    1836                    $C$DW$108       .dwtag  DW_TAG_TI_loop
    1837                            .dwattr $C$DW$108, DW_AT_name("H:\EECS_388\TI_ARM_Project\FreeRTOS_IntTimer\Debug\rit128x96x4.
    1838                            .dwattr $C$DW$108, DW_AT_TI_begin_file("../Drivers/rit128x96x4.c")
    1839                            .dwattr $C$DW$108, DW_AT_TI_begin_line(0x239)
    1840                            .dwattr $C$DW$108, DW_AT_TI_end_line(0x25a)
    1841                    $C$DW$109       .dwtag  DW_TAG_TI_loop_range
    1842                            .dwattr $C$DW$109, DW_AT_low_pc($C$DW$L$RIT128x96x4StringDraw$6$B)
    1843                            .dwattr $C$DW$109, DW_AT_high_pc($C$DW$L$RIT128x96x4StringDraw$6$E)
    1844                    $C$DW$110       .dwtag  DW_TAG_TI_loop_range
    1845                            .dwattr $C$DW$110, DW_AT_low_pc($C$DW$L$RIT128x96x4StringDraw$13$B)
    1846                            .dwattr $C$DW$110, DW_AT_high_pc($C$DW$L$RIT128x96x4StringDraw$13$E)
    1847                    $C$DW$111       .dwtag  DW_TAG_TI_loop_range
    1848                            .dwattr $C$DW$111, DW_AT_low_pc($C$DW$L$RIT128x96x4StringDraw$14$B)
    1849                            .dwattr $C$DW$111, DW_AT_high_pc($C$DW$L$RIT128x96x4StringDraw$14$E)
    1850                    
    1851                    $C$DW$112       .dwtag  DW_TAG_TI_loop
    1852                            .dwattr $C$DW$112, DW_AT_name("H:\EECS_388\TI_ARM_Project\FreeRTOS_IntTimer\Debug\rit128x96x4.
    1853                            .dwattr $C$DW$112, DW_AT_TI_begin_file("../Drivers/rit128x96x4.c")
    1854                            .dwattr $C$DW$112, DW_AT_TI_begin_line(0x23f)
    1855                            .dwattr $C$DW$112, DW_AT_TI_end_line(0x24b)
    1856                    $C$DW$113       .dwtag  DW_TAG_TI_loop_range
    1857                            .dwattr $C$DW$113, DW_AT_low_pc($C$DW$L$RIT128x96x4StringDraw$7$B)
    1858                            .dwattr $C$DW$113, DW_AT_high_pc($C$DW$L$RIT128x96x4StringDraw$7$E)
    1859                    $C$DW$114       .dwtag  DW_TAG_TI_loop_range
    1860                            .dwattr $C$DW$114, DW_AT_low_pc($C$DW$L$RIT128x96x4StringDraw$8$B)
    1861                            .dwattr $C$DW$114, DW_AT_high_pc($C$DW$L$RIT128x96x4StringDraw$8$E)
    1862                    $C$DW$115       .dwtag  DW_TAG_TI_loop_range
    1863                            .dwattr $C$DW$115, DW_AT_low_pc($C$DW$L$RIT128x96x4StringDraw$9$B)
    1864                            .dwattr $C$DW$115, DW_AT_high_pc($C$DW$L$RIT128x96x4StringDraw$9$E)
    1865                    $C$DW$116       .dwtag  DW_TAG_TI_loop_range
    1866                            .dwattr $C$DW$116, DW_AT_low_pc($C$DW$L$RIT128x96x4StringDraw$10$B)
    1867                            .dwattr $C$DW$116, DW_AT_high_pc($C$DW$L$RIT128x96x4StringDraw$10$E)
    1868                    $C$DW$117       .dwtag  DW_TAG_TI_loop_range
    1869                            .dwattr $C$DW$117, DW_AT_low_pc($C$DW$L$RIT128x96x4StringDraw$11$B)
    1870                            .dwattr $C$DW$117, DW_AT_high_pc($C$DW$L$RIT128x96x4StringDraw$11$E)
TI ARM Assembler PC v5.0.4 Mon Apr 28 11:29:12 2014

Tools Copyright (c) 1996-2013 Texas Instruments Incorporated
rit128x96x4.asm                                                      PAGE   35

    1871                    $C$DW$118       .dwtag  DW_TAG_TI_loop_range
    1872                            .dwattr $C$DW$118, DW_AT_low_pc($C$DW$L$RIT128x96x4StringDraw$12$B)
    1873                            .dwattr $C$DW$118, DW_AT_high_pc($C$DW$L$RIT128x96x4StringDraw$12$E)
    1874                            .dwendtag $C$DW$112
    1875                    
    1876                            .dwendtag $C$DW$108
    1877                    
    1878                            .dwendtag $C$DW$102
    1879                    
    1880                            .dwattr $C$DW$85, DW_AT_TI_end_file("../Drivers/rit128x96x4.c")
    1881                            .dwattr $C$DW$85, DW_AT_TI_end_line(0x25c)
    1882                            .dwattr $C$DW$85, DW_AT_TI_end_column(0x01)
    1883                            .dwendentry
    1884                            .dwendtag $C$DW$85
    1885                    
    1886 000002a4                   .sect   ".text"
    1887                            .clink
    1888                            .thumbfunc RIT128x96x4ImageDraw
    1889 000002a4                   .thumb
    1890                            .global RIT128x96x4ImageDraw
    1891                    
    1892                    $C$DW$119       .dwtag  DW_TAG_subprogram, DW_AT_name("RIT128x96x4ImageDraw")
    1893                            .dwattr $C$DW$119, DW_AT_low_pc(RIT128x96x4ImageDraw)
    1894                            .dwattr $C$DW$119, DW_AT_high_pc(0x00)
    1895                            .dwattr $C$DW$119, DW_AT_TI_symbol_name("RIT128x96x4ImageDraw")
    1896                            .dwattr $C$DW$119, DW_AT_external
    1897                            .dwattr $C$DW$119, DW_AT_TI_begin_file("../Drivers/rit128x96x4.c")
    1898                            .dwattr $C$DW$119, DW_AT_TI_begin_line(0x29c)
    1899                            .dwattr $C$DW$119, DW_AT_TI_begin_column(0x01)
    1900                            .dwattr $C$DW$119, DW_AT_decl_file("../Drivers/rit128x96x4.c")
    1901                            .dwattr $C$DW$119, DW_AT_decl_line(0x29c)
    1902                            .dwattr $C$DW$119, DW_AT_decl_column(0x01)
    1903                            .dwattr $C$DW$119, DW_AT_TI_max_frame_size(0x18)
    1904                            .dwpsn  file "../Drivers/rit128x96x4.c",line 671,column 1,is_stmt,address RIT128x96x4ImageDraw
    1905                    
    1906                            .dwfde $C$DW$CIE, RIT128x96x4ImageDraw
    1907                    $C$DW$120       .dwtag  DW_TAG_formal_parameter, DW_AT_name("pucImage")
    1908                            .dwattr $C$DW$120, DW_AT_TI_symbol_name("pucImage")
    1909                            .dwattr $C$DW$120, DW_AT_type(*$C$DW$T$32)
    1910                            .dwattr $C$DW$120, DW_AT_location[DW_OP_reg0]
    1911                    $C$DW$121       .dwtag  DW_TAG_formal_parameter, DW_AT_name("ulX")
    1912                            .dwattr $C$DW$121, DW_AT_TI_symbol_name("ulX")
    1913                            .dwattr $C$DW$121, DW_AT_type(*$C$DW$T$13)
    1914                            .dwattr $C$DW$121, DW_AT_location[DW_OP_reg1]
    1915                    $C$DW$122       .dwtag  DW_TAG_formal_parameter, DW_AT_name("ulY")
    1916                            .dwattr $C$DW$122, DW_AT_TI_symbol_name("ulY")
    1917                            .dwattr $C$DW$122, DW_AT_type(*$C$DW$T$13)
    1918                            .dwattr $C$DW$122, DW_AT_location[DW_OP_reg2]
    1919                    $C$DW$123       .dwtag  DW_TAG_formal_parameter, DW_AT_name("ulWidth")
    1920                            .dwattr $C$DW$123, DW_AT_TI_symbol_name("ulWidth")
    1921                            .dwattr $C$DW$123, DW_AT_type(*$C$DW$T$13)
    1922                            .dwattr $C$DW$123, DW_AT_location[DW_OP_reg3]
    1923                    $C$DW$124       .dwtag  DW_TAG_formal_parameter, DW_AT_name("ulHeight")
    1924                            .dwattr $C$DW$124, DW_AT_TI_symbol_name("ulHeight")
    1925                            .dwattr $C$DW$124, DW_AT_type(*$C$DW$T$13)
TI ARM Assembler PC v5.0.4 Mon Apr 28 11:29:12 2014

Tools Copyright (c) 1996-2013 Texas Instruments Incorporated
rit128x96x4.asm                                                      PAGE   36

    1926                            .dwattr $C$DW$124, DW_AT_location[DW_OP_breg13 24]
    1927                    
    1928                    ;*****************************************************************************
    1929                    ;* FUNCTION NAME: RIT128x96x4ImageDraw                                       *
    1930                    ;*                                                                           *
    1931                    ;*   Regs Modified     : A1,A2,A3,A4,V9,SP,LR,SR                             *
    1932                    ;*   Regs Used         : A1,A2,A3,A4,V9,SP,LR,SR                             *
    1933                    ;*   Local Frame Size  : 0 Args + 16 Auto + 4 Save = 20 byte                 *
    1934                    ;*****************************************************************************
    1935 000002a4           RIT128x96x4ImageDraw:
    1936                    ;* --------------------------------------------------------------------------*
    1937                            .dwcfi  cfa_offset, 0
    1938 000002a4 B500              PUSH      {LR}                  ; [DPU_3_PIPE]  ; [ORIG 16-BIT INS]
    1939                            .dwcfi  cfa_offset, 4
    1940                            .dwcfi  save_reg_to_mem, 14, -4
    1941 000002a6 0D14F1AD          SUB       SP, SP, #20           ; [DPU_3_PIPE]  ; [KEEP 32-BIT INS]
    1942                            .dwcfi  cfa_offset, 24
    1943                    $C$DW$125       .dwtag  DW_TAG_variable, DW_AT_name("pucImage")
    1944                            .dwattr $C$DW$125, DW_AT_TI_symbol_name("pucImage")
    1945                            .dwattr $C$DW$125, DW_AT_type(*$C$DW$T$32)
    1946                            .dwattr $C$DW$125, DW_AT_location[DW_OP_breg13 0]
    1947                    $C$DW$126       .dwtag  DW_TAG_variable, DW_AT_name("ulX")
    1948                            .dwattr $C$DW$126, DW_AT_TI_symbol_name("ulX")
    1949                            .dwattr $C$DW$126, DW_AT_type(*$C$DW$T$13)
    1950                            .dwattr $C$DW$126, DW_AT_location[DW_OP_breg13 4]
    1951                    $C$DW$127       .dwtag  DW_TAG_variable, DW_AT_name("ulY")
    1952                            .dwattr $C$DW$127, DW_AT_TI_symbol_name("ulY")
    1953                            .dwattr $C$DW$127, DW_AT_type(*$C$DW$T$13)
    1954                            .dwattr $C$DW$127, DW_AT_location[DW_OP_breg13 8]
    1955                    $C$DW$128       .dwtag  DW_TAG_variable, DW_AT_name("ulWidth")
    1956                            .dwattr $C$DW$128, DW_AT_TI_symbol_name("ulWidth")
    1957                            .dwattr $C$DW$128, DW_AT_type(*$C$DW$T$13)
    1958                            .dwattr $C$DW$128, DW_AT_location[DW_OP_breg13 12]
    1959 000002aa 9303              STR       A4, [SP, #12]         ; [DPU_3_PIPE] |671|  ; [ORIG 16-BIT INS]
    1960 000002ac 9202              STR       A3, [SP, #8]          ; [DPU_3_PIPE] |671|  ; [ORIG 16-BIT INS]
    1961 000002ae 9101              STR       A2, [SP, #4]          ; [DPU_3_PIPE] |671|  ; [ORIG 16-BIT INS]
    1962 000002b0 9000              STR       A1, [SP, #0]          ; [DPU_3_PIPE] |671|  ; [ORIG 16-BIT INS]
    1963                            .dwpsn  file "../Drivers/rit128x96x4.c",line 686,column 5,is_stmt,isa 1
    1964 000002b2 491E              LDR       A2, $C$CON5           ; [DPU_3_PIPE] |686|  ; [ORIG 16-BIT INS]
    1965 000002b4 2015              MOVS      A1, #21               ; [DPU_3_PIPE] |686|  ; [ORIG 16-BIT INS]
    1966 000002b6 7008              STRB      A1, [A2, #0]          ; [DPU_3_PIPE] |686|  ; [ORIG 16-BIT INS]
    1967                            .dwpsn  file "../Drivers/rit128x96x4.c",line 687,column 5,is_stmt,isa 1
    1968 000002b8 494F              LDR       A2, $C$CON10          ; [DPU_3_PIPE] |687|  ; [ORIG 16-BIT INS]
    1969 000002ba 9801              LDR       A1, [SP, #4]          ; [DPU_3_PIPE] |687|  ; [ORIG 16-BIT INS]
    1970 000002bc 0840              LSRS      A1, A1, #1            ; [DPU_3_PIPE] |687|  ; [ORIG 16-BIT INS]
    1971 000002be 7008              STRB      A1, [A2, #0]          ; [DPU_3_PIPE] |687|  ; [ORIG 16-BIT INS]
    1972                            .dwpsn  file "../Drivers/rit128x96x4.c",line 688,column 5,is_stmt,isa 1
    1973 000002c0 9803              LDR       A1, [SP, #12]         ; [DPU_3_PIPE] |688|  ; [ORIG 16-BIT INS]
    1974 000002c2 9901              LDR       A2, [SP, #4]          ; [DPU_3_PIPE] |688|  ; [ORIG 16-BIT INS]
    1975 000002c4 1840              ADDS      A1, A1, A2            ; [DPU_3_PIPE] |688|  ; [ORIG 16-BIT INS]
    1976 000002c6 494D              LDR       A2, $C$CON11          ; [DPU_3_PIPE] |688|  ; [ORIG 16-BIT INS]
    1977 000002c8 1E80              SUBS      A1, A1, #2            ; [DPU_3_PIPE] |688|  ; [ORIG 16-BIT INS]
    1978 000002ca 0840              LSRS      A1, A1, #1            ; [DPU_3_PIPE] |688|  ; [ORIG 16-BIT INS]
    1979 000002cc 7008              STRB      A1, [A2, #0]          ; [DPU_3_PIPE] |688|  ; [ORIG 16-BIT INS]
    1980                            .dwpsn  file "../Drivers/rit128x96x4.c",line 689,column 5,is_stmt,isa 1
TI ARM Assembler PC v5.0.4 Mon Apr 28 11:29:12 2014

Tools Copyright (c) 1996-2013 Texas Instruments Incorporated
rit128x96x4.asm                                                      PAGE   37

    1981 000002ce 4817              LDR       A1, $C$CON5           ; [DPU_3_PIPE] |689|  ; [ORIG 16-BIT INS]
    1982 000002d0 2103              MOVS      A2, #3                ; [DPU_3_PIPE] |689|  ; [ORIG 16-BIT INS]
    1983                    $C$DW$129       .dwtag  DW_TAG_TI_branch
    1984                            .dwattr $C$DW$129, DW_AT_low_pc(0x00)
    1985                            .dwattr $C$DW$129, DW_AT_name("RITWriteCommand")
    1986                            .dwattr $C$DW$129, DW_AT_TI_call
    1987 000002d2 FE95F7FF          BL        RITWriteCommand       ; [DPU_3_PIPE] |689|  ; [KEEP 32-BIT INS]
    1988                            ; CALL OCCURS {RITWriteCommand }  ; [] |689| 
    1989                            .dwpsn  file "../Drivers/rit128x96x4.c",line 690,column 5,is_stmt,isa 1
    1990 000002d6 4915              LDR       A2, $C$CON5           ; [DPU_3_PIPE] |690|  ; [ORIG 16-BIT INS]
    1991 000002d8 2075              MOVS      A1, #117              ; [DPU_3_PIPE] |690|  ; [ORIG 16-BIT INS]
    1992 000002da 7008              STRB      A1, [A2, #0]          ; [DPU_3_PIPE] |690|  ; [ORIG 16-BIT INS]
    1993                            .dwpsn  file "../Drivers/rit128x96x4.c",line 691,column 5,is_stmt,isa 1
    1994 000002dc 4946              LDR       A2, $C$CON10          ; [DPU_3_PIPE] |691|  ; [ORIG 16-BIT INS]
    1995 000002de 0008F89D          LDRB      A1, [SP, #8]          ; [DPU_3_PIPE] |691|  ; [KEEP 32-BIT INS]
    1996 000002e2 7008              STRB      A1, [A2, #0]          ; [DPU_3_PIPE] |691|  ; [ORIG 16-BIT INS]
    1997                            .dwpsn  file "../Drivers/rit128x96x4.c",line 692,column 5,is_stmt,isa 1
    1998 000002e4 9902              LDR       A2, [SP, #8]          ; [DPU_3_PIPE] |692|  ; [ORIG 16-BIT INS]
    1999 000002e6 9806              LDR       A1, [SP, #24]         ; [DPU_3_PIPE] |692|  ; [ORIG 16-BIT INS]
    2000 000002e8 1840              ADDS      A1, A1, A2            ; [DPU_3_PIPE] |692|  ; [ORIG 16-BIT INS]
    2001 000002ea 4944              LDR       A2, $C$CON11          ; [DPU_3_PIPE] |692|  ; [ORIG 16-BIT INS]
    2002 000002ec 1E40              SUBS      A1, A1, #1            ; [DPU_3_PIPE] |692|  ; [ORIG 16-BIT INS]
    2003 000002ee 7008              STRB      A1, [A2, #0]          ; [DPU_3_PIPE] |692|  ; [ORIG 16-BIT INS]
    2004                            .dwpsn  file "../Drivers/rit128x96x4.c",line 693,column 5,is_stmt,isa 1
    2005 000002f0 480E              LDR       A1, $C$CON5           ; [DPU_3_PIPE] |693|  ; [ORIG 16-BIT INS]
    2006 000002f2 2103              MOVS      A2, #3                ; [DPU_3_PIPE] |693|  ; [ORIG 16-BIT INS]
    2007                    $C$DW$130       .dwtag  DW_TAG_TI_branch
    2008                            .dwattr $C$DW$130, DW_AT_low_pc(0x00)
    2009                            .dwattr $C$DW$130, DW_AT_name("RITWriteCommand")
    2010                            .dwattr $C$DW$130, DW_AT_TI_call
    2011 000002f4 FE84F7FF          BL        RITWriteCommand       ; [DPU_3_PIPE] |693|  ; [KEEP 32-BIT INS]
    2012                            ; CALL OCCURS {RITWriteCommand }  ; [] |693| 
    2013                            .dwpsn  file "../Drivers/rit128x96x4.c",line 694,column 5,is_stmt,isa 1
    2014 000002f8 4810              LDR       A1, $C$CON9           ; [DPU_3_PIPE] |694|  ; [ORIG 16-BIT INS]
    2015 000002fa 2102              MOVS      A2, #2                ; [DPU_3_PIPE] |694|  ; [ORIG 16-BIT INS]
    2016                    $C$DW$131       .dwtag  DW_TAG_TI_branch
    2017                            .dwattr $C$DW$131, DW_AT_low_pc(0x00)
    2018                            .dwattr $C$DW$131, DW_AT_name("RITWriteCommand")
    2019                            .dwattr $C$DW$131, DW_AT_TI_call
    2020 000002fc FE80F7FF          BL        RITWriteCommand       ; [DPU_3_PIPE] |694|  ; [KEEP 32-BIT INS]
    2021                            ; CALL OCCURS {RITWriteCommand }  ; [] |694| 
    2022                            .dwpsn  file "../Drivers/rit128x96x4.c",line 700,column 5,is_stmt,isa 1
    2023 00000300 9806              LDR       A1, [SP, #24]         ; [DPU_3_PIPE] |700|  ; [ORIG 16-BIT INS]
    2024 00000302 1E41              SUBS      A2, A1, #1            ; [DPU_3_PIPE] |700|  ; [ORIG 16-BIT INS]
    2025 00000304 9106              STR       A2, [SP, #24]         ; [DPU_3_PIPE] |700|  ; [ORIG 16-BIT INS]
    2026 00000306 B178              CBZ       A1, ||$C$L24||        ; []  ; [ORIG 16-BIT INS]
    2027                            ; BRANCHCC OCCURS {||$C$L24||}   ; [] |700| 
    2028                    ;* --------------------------------------------------------------------------*
    2029                    ;*   BEGIN LOOP ||$C$L23||
    2030                    ;*
    2031                    ;*   Loop source line                : 700
    2032                    ;*   Loop closing brace source line  : 711
    2033                    ;*   Known Minimum Trip Count        : 1
    2034                    ;*   Known Maximum Trip Count        : 4294967295
    2035                    ;*   Known Max Trip Count Factor     : 1
TI ARM Assembler PC v5.0.4 Mon Apr 28 11:29:12 2014

Tools Copyright (c) 1996-2013 Texas Instruments Incorporated
rit128x96x4.asm                                                      PAGE   38

    2036                    ;* --------------------------------------------------------------------------*
    2037 00000308           ||$C$L23||:    
    2038 00000308           $C$DW$L$RIT128x96x4ImageDraw$2$B:
    2039                            .dwpsn  file "../Drivers/rit128x96x4.c",line 705,column 9,is_stmt,isa 1
    2040 00000308 9803              LDR       A1, [SP, #12]         ; [DPU_3_PIPE] |705|  ; [ORIG 16-BIT INS]
    2041 0000030a 0841              LSRS      A2, A1, #1            ; [DPU_3_PIPE] |705|  ; [ORIG 16-BIT INS]
    2042 0000030c 9800              LDR       A1, [SP, #0]          ; [DPU_3_PIPE] |705|  ; [ORIG 16-BIT INS]
    2043                    $C$DW$132       .dwtag  DW_TAG_TI_branch
    2044                            .dwattr $C$DW$132, DW_AT_low_pc(0x00)
    2045                            .dwattr $C$DW$132, DW_AT_name("RITWriteData")
    2046                            .dwattr $C$DW$132, DW_AT_TI_call
    2047 0000030e FEB9F7FF          BL        RITWriteData          ; [DPU_3_PIPE] |705|  ; [KEEP 32-BIT INS]
    2048                            ; CALL OCCURS {RITWriteData }    ; [] |705| 
    2049                            .dwpsn  file "../Drivers/rit128x96x4.c",line 710,column 9,is_stmt,isa 1
    2050 00000312 9903              LDR       A2, [SP, #12]         ; [DPU_3_PIPE] |710|  ; [ORIG 16-BIT INS]
    2051 00000314 9800              LDR       A1, [SP, #0]          ; [DPU_3_PIPE] |710|  ; [ORIG 16-BIT INS]
    2052 00000316 0051EB00          ADD       A1, A1, A2, LSR #1    ; [DPU_3_PIPE] |710|  ; [KEEP 32-BIT INS]
    2053 0000031a 9000              STR       A1, [SP, #0]          ; [DPU_3_PIPE] |710|  ; [ORIG 16-BIT INS]
    2054                            .dwpsn  file "../Drivers/rit128x96x4.c",line 711,column 5,is_stmt,isa 1
    2055 0000031c 9806              LDR       A1, [SP, #24]         ; [DPU_3_PIPE] |711|  ; [ORIG 16-BIT INS]
    2056 0000031e 2800              CMP       A1, #0                ; [DPU_3_PIPE] |711|  ; [ORIG 16-BIT INS]
    2057 00000320 0101F1A0          SUB       A2, A1, #1            ; [DPU_3_PIPE] |711|  ; [KEEP 32-BIT INS]
    2058 00000324 9106              STR       A2, [SP, #24]         ; [DPU_3_PIPE] |711|  ; [ORIG 16-BIT INS]
    2059 00000326 D1EF              BNE       ||$C$L23||            ; [DPU_3_PIPE] |711|  ; [ORIG 16-BIT INS]
    2060                            ; BRANCHCC OCCURS {||$C$L23||}   ; [] |711| 
    2061 00000328           $C$DW$L$RIT128x96x4ImageDraw$2$E:
    2062                    ;* --------------------------------------------------------------------------*
    2063                            .dwpsn  file "../Drivers/rit128x96x4.c",line 712,column 1,is_stmt,isa 1
    2064                    ;* --------------------------------------------------------------------------*
    2065 00000328           ||$C$L24||:    
    2066 00000328 B005              ADD       SP, SP, #20           ; [DPU_3_PIPE]  ; [ORIG 16-BIT INS]
    2067                            .dwcfi  cfa_offset, 4
    2068                    $C$DW$133       .dwtag  DW_TAG_TI_branch
    2069                            .dwattr $C$DW$133, DW_AT_low_pc(0x00)
    2070                            .dwattr $C$DW$133, DW_AT_TI_return
    2071 0000032a BD00              POP       {PC}                  ; [DPU_3_PIPE]  ; [ORIG 16-BIT INS]
    2072                            ; BRANCH OCCURS                  ; [] 
    2073                    
    2074                    $C$DW$134       .dwtag  DW_TAG_TI_loop
    2075                            .dwattr $C$DW$134, DW_AT_name("H:\EECS_388\TI_ARM_Project\FreeRTOS_IntTimer\Debug\rit128x96x4.
    2076                            .dwattr $C$DW$134, DW_AT_TI_begin_file("../Drivers/rit128x96x4.c")
    2077                            .dwattr $C$DW$134, DW_AT_TI_begin_line(0x2bc)
    2078                            .dwattr $C$DW$134, DW_AT_TI_end_line(0x2c7)
    2079                    $C$DW$135       .dwtag  DW_TAG_TI_loop_range
    2080                            .dwattr $C$DW$135, DW_AT_low_pc($C$DW$L$RIT128x96x4ImageDraw$2$B)
    2081                            .dwattr $C$DW$135, DW_AT_high_pc($C$DW$L$RIT128x96x4ImageDraw$2$E)
    2082                            .dwendtag $C$DW$134
    2083                    
    2084                            .dwattr $C$DW$119, DW_AT_TI_end_file("../Drivers/rit128x96x4.c")
    2085                            .dwattr $C$DW$119, DW_AT_TI_end_line(0x2c8)
    2086                            .dwattr $C$DW$119, DW_AT_TI_end_column(0x01)
    2087                            .dwendentry
    2088                            .dwendtag $C$DW$119
    2089                    
    2090                    ;******************************************************************************
TI ARM Assembler PC v5.0.4 Mon Apr 28 11:29:12 2014

Tools Copyright (c) 1996-2013 Texas Instruments Incorporated
rit128x96x4.asm                                                      PAGE   39

    2091                    ;* CONSTANT TABLE                                                             *
    2092                    ;******************************************************************************
    2093 0000032c                   .sect   ".text"
    2094                            .align  4
    2095 0000032c 00000000! ||$C$CON5||:    .field  g_pucBuffer,32
    2096                            .align  4
    2097 00000330 00000004! ||$C$CON6||:    .field  g_pucBuffer+4,32
    2098                            .align  4
    2099 00000334 00000000! ||$C$CON7||:    .field  pucCommand1$1,32
    2100                            .align  4
    2101 00000338 00000000! ||$C$CON8||:    .field  pucCommand2$2,32
    2102                            .align  4
    2103 0000033c 00000000! ||$C$CON9||:    .field  g_pucRIT128x96x4HorizontalInc,32
    2104 00000340                   .sect   ".text"
    2105                            .clink
    2106                            .thumbfunc RIT128x96x4Enable
    2107 00000340                   .thumb
    2108                            .global RIT128x96x4Enable
    2109                    
    2110                    $C$DW$136       .dwtag  DW_TAG_subprogram, DW_AT_name("RIT128x96x4Enable")
    2111                            .dwattr $C$DW$136, DW_AT_low_pc(RIT128x96x4Enable)
    2112                            .dwattr $C$DW$136, DW_AT_high_pc(0x00)
    2113                            .dwattr $C$DW$136, DW_AT_TI_symbol_name("RIT128x96x4Enable")
    2114                            .dwattr $C$DW$136, DW_AT_external
    2115                            .dwattr $C$DW$136, DW_AT_TI_begin_file("../Drivers/rit128x96x4.c")
    2116                            .dwattr $C$DW$136, DW_AT_TI_begin_line(0x2d6)
    2117                            .dwattr $C$DW$136, DW_AT_TI_begin_column(0x01)
    2118                            .dwattr $C$DW$136, DW_AT_decl_file("../Drivers/rit128x96x4.c")
    2119                            .dwattr $C$DW$136, DW_AT_decl_line(0x2d6)
    2120                            .dwattr $C$DW$136, DW_AT_decl_column(0x01)
    2121                            .dwattr $C$DW$136, DW_AT_TI_max_frame_size(0x10)
    2122                            .dwpsn  file "../Drivers/rit128x96x4.c",line 727,column 1,is_stmt,address RIT128x96x4Enable,is
    2123                    
    2124                            .dwfde $C$DW$CIE, RIT128x96x4Enable
    2125                    $C$DW$137       .dwtag  DW_TAG_formal_parameter, DW_AT_name("ulFrequency")
    2126                            .dwattr $C$DW$137, DW_AT_TI_symbol_name("ulFrequency")
    2127                            .dwattr $C$DW$137, DW_AT_type(*$C$DW$T$13)
    2128                            .dwattr $C$DW$137, DW_AT_location[DW_OP_reg0]
    2129                    
    2130                    ;*****************************************************************************
    2131                    ;* FUNCTION NAME: RIT128x96x4Enable                                          *
    2132                    ;*                                                                           *
    2133                    ;*   Regs Modified     : A1,A2,A3,A4,V9,SP,LR,SR                             *
    2134                    ;*   Regs Used         : A1,A2,A3,A4,V9,SP,LR,SR                             *
    2135                    ;*   Local Frame Size  : 8 Args + 4 Auto + 4 Save = 16 byte                  *
    2136                    ;*****************************************************************************
    2137 00000340           RIT128x96x4Enable:
    2138                    ;* --------------------------------------------------------------------------*
    2139                            .dwcfi  cfa_offset, 0
    2140 00000340 B50E              PUSH      {A2, A3, A4, LR}      ; [DPU_3_PIPE]  ; [ORIG 16-BIT INS]
    2141                            .dwcfi  cfa_offset, 4
    2142                            .dwcfi  save_reg_to_mem, 14, -4
    2143                            .dwcfi  cfa_offset, 8
    2144                            .dwcfi  save_reg_to_mem, 3, -8
    2145                            .dwcfi  cfa_offset, 12
TI ARM Assembler PC v5.0.4 Mon Apr 28 11:29:12 2014

Tools Copyright (c) 1996-2013 Texas Instruments Incorporated
rit128x96x4.asm                                                      PAGE   40

    2146                            .dwcfi  save_reg_to_mem, 2, -12
    2147                            .dwcfi  cfa_offset, 16
    2148                            .dwcfi  save_reg_to_mem, 1, -16
    2149                            .dwcfi  cfa_offset, 16
    2150                    $C$DW$138       .dwtag  DW_TAG_variable, DW_AT_name("ulFrequency")
    2151                            .dwattr $C$DW$138, DW_AT_TI_symbol_name("ulFrequency")
    2152                            .dwattr $C$DW$138, DW_AT_type(*$C$DW$T$13)
    2153                            .dwattr $C$DW$138, DW_AT_location[DW_OP_breg13 8]
    2154 00000342 9002              STR       A1, [SP, #8]          ; [DPU_3_PIPE] |727|  ; [ORIG 16-BIT INS]
    2155                            .dwpsn  file "../Drivers/rit128x96x4.c",line 731,column 5,is_stmt,isa 1
    2156 00000344 4868              LDR       A1, $C$CON14          ; [DPU_3_PIPE] |731|  ; [ORIG 16-BIT INS]
    2157                    $C$DW$139       .dwtag  DW_TAG_TI_branch
    2158                            .dwattr $C$DW$139, DW_AT_low_pc(0x00)
    2159                            .dwattr $C$DW$139, DW_AT_name("SSIDisable")
    2160                            .dwattr $C$DW$139, DW_AT_TI_call
    2161 00000346 FFFEF7FF!         BL        SSIDisable            ; [DPU_3_PIPE] |731|  ; [KEEP 32-BIT INS]
    2162                            ; CALL OCCURS {SSIDisable }      ; [] |731| 
    2163                            .dwpsn  file "../Drivers/rit128x96x4.c",line 736,column 5,is_stmt,isa 1
    2164                    $C$DW$140       .dwtag  DW_TAG_TI_branch
    2165                            .dwattr $C$DW$140, DW_AT_low_pc(0x00)
    2166                            .dwattr $C$DW$140, DW_AT_name("SysCtlClockGet")
    2167                            .dwattr $C$DW$140, DW_AT_TI_call
    2168 0000034a FFFEF7FF!         BL        SysCtlClockGet        ; [DPU_3_PIPE] |736|  ; [KEEP 32-BIT INS]
    2169                            ; CALL OCCURS {SysCtlClockGet }  ; [] |736| 
    2170 0000034e 4601              MOV       A2, A1                ; [DPU_3_PIPE] |736|  ; [ORIG 16-BIT INS]
    2171 00000350 9802              LDR       A1, [SP, #8]          ; [DPU_3_PIPE] |736|  ; [ORIG 16-BIT INS]
    2172 00000352 9000              STR       A1, [SP, #0]          ; [DPU_3_PIPE] |736|  ; [ORIG 16-BIT INS]
    2173 00000354 2008              MOVS      A1, #8                ; [DPU_3_PIPE] |736|  ; [ORIG 16-BIT INS]
    2174 00000356 9001              STR       A1, [SP, #4]          ; [DPU_3_PIPE] |736|  ; [ORIG 16-BIT INS]
    2175 00000358 4863              LDR       A1, $C$CON14          ; [DPU_3_PIPE] |736|  ; [ORIG 16-BIT INS]
    2176 0000035a 2203              MOVS      A3, #3                ; [DPU_3_PIPE] |736|  ; [ORIG 16-BIT INS]
    2177 0000035c 2300              MOVS      A4, #0                ; [DPU_3_PIPE] |736|  ; [ORIG 16-BIT INS]
    2178                    $C$DW$141       .dwtag  DW_TAG_TI_branch
    2179                            .dwattr $C$DW$141, DW_AT_low_pc(0x00)
    2180                            .dwattr $C$DW$141, DW_AT_name("SSIConfigSetExpClk")
    2181                            .dwattr $C$DW$141, DW_AT_TI_call
    2182 0000035e FFFEF7FF!         BL        SSIConfigSetExpClk    ; [DPU_3_PIPE] |736|  ; [KEEP 32-BIT INS]
    2183                            ; CALL OCCURS {SSIConfigSetExpClk }  ; [] |736| 
    2184                            .dwpsn  file "../Drivers/rit128x96x4.c",line 742,column 5,is_stmt,isa 1
    2185 00000362 2040F04F          MOV       A1, #1073758208       ; [DPU_3_PIPE] |742|  ; [KEEP 32-BIT INS]
    2186 00000366 2108              MOVS      A2, #8                ; [DPU_3_PIPE] |742|  ; [ORIG 16-BIT INS]
    2187                    $C$DW$142       .dwtag  DW_TAG_TI_branch
    2188                            .dwattr $C$DW$142, DW_AT_low_pc(0x00)
    2189                            .dwattr $C$DW$142, DW_AT_name("GPIOPinTypeSSI")
    2190                            .dwattr $C$DW$142, DW_AT_TI_call
    2191 00000368 FFFEF7FF!         BL        GPIOPinTypeSSI        ; [DPU_3_PIPE] |742|  ; [KEEP 32-BIT INS]
    2192                            ; CALL OCCURS {GPIOPinTypeSSI }  ; [] |742| 
    2193                            .dwpsn  file "../Drivers/rit128x96x4.c",line 743,column 5,is_stmt,isa 1
    2194 0000036c 2040F04F          MOV       A1, #1073758208       ; [DPU_3_PIPE] |743|  ; [KEEP 32-BIT INS]
    2195 00000370 2108              MOVS      A2, #8                ; [DPU_3_PIPE] |743|  ; [ORIG 16-BIT INS]
    2196 00000372 2204              MOVS      A3, #4                ; [DPU_3_PIPE] |743|  ; [ORIG 16-BIT INS]
    2197 00000374 230A              MOVS      A4, #10               ; [DPU_3_PIPE] |743|  ; [ORIG 16-BIT INS]
    2198                    $C$DW$143       .dwtag  DW_TAG_TI_branch
    2199                            .dwattr $C$DW$143, DW_AT_low_pc(0x00)
    2200                            .dwattr $C$DW$143, DW_AT_name("GPIOPadConfigSet")
TI ARM Assembler PC v5.0.4 Mon Apr 28 11:29:12 2014

Tools Copyright (c) 1996-2013 Texas Instruments Incorporated
rit128x96x4.asm                                                      PAGE   41

    2201                            .dwattr $C$DW$143, DW_AT_TI_call
    2202 00000376 FFFEF7FF!         BL        GPIOPadConfigSet      ; [DPU_3_PIPE] |743|  ; [KEEP 32-BIT INS]
    2203                            ; CALL OCCURS {GPIOPadConfigSet }  ; [] |743| 
    2204                            .dwpsn  file "../Drivers/rit128x96x4.c",line 749,column 5,is_stmt,isa 1
    2205 0000037a 485B              LDR       A1, $C$CON14          ; [DPU_3_PIPE] |749|  ; [ORIG 16-BIT INS]
    2206                    $C$DW$144       .dwtag  DW_TAG_TI_branch
    2207                            .dwattr $C$DW$144, DW_AT_low_pc(0x00)
    2208                            .dwattr $C$DW$144, DW_AT_name("SSIEnable")
    2209                            .dwattr $C$DW$144, DW_AT_TI_call
    2210 0000037c FFFEF7FF!         BL        SSIEnable             ; [DPU_3_PIPE] |749|  ; [KEEP 32-BIT INS]
    2211                            ; CALL OCCURS {SSIEnable }       ; [] |749| 
    2212                            .dwpsn  file "../Drivers/rit128x96x4.c",line 754,column 5,is_stmt,isa 1
    2213 00000380 495A              LDR       A2, $C$CON15          ; [DPU_3_PIPE] |754|  ; [ORIG 16-BIT INS]
    2214 00000382 485A              LDR       A1, $C$CON15          ; [DPU_3_PIPE] |754|  ; [ORIG 16-BIT INS]
    2215 00000384 511FF36F          BFC       A2, #20, #12          ; [DPU_3_PIPE] |754|  ; [KEEP 32-BIT INS]
    2216 00000388 4070F000          AND       A1, A1, #-268435456   ; [DPU_3_PIPE] |754|  ; [KEEP 32-BIT INS]
    2217 0000038c 1041EA40          ORR       A1, A1, A2, LSL #5    ; [DPU_3_PIPE] |754|  ; [KEEP 32-BIT INS]
    2218 00000390 2101              MOVS      A2, #1                ; [DPU_3_PIPE] |754|  ; [ORIG 16-BIT INS]
    2219 00000392 7000F040          ORR       A1, A1, #33554432     ; [DPU_3_PIPE] |754|  ; [KEEP 32-BIT INS]
    2220 00000396 6001              STR       A2, [A1, #0]          ; [DPU_3_PIPE] |754|  ; [ORIG 16-BIT INS]
    2221                            .dwpsn  file "../Drivers/rit128x96x4.c",line 755,column 1,is_stmt,isa 1
    2222                            .dwcfi  cfa_offset, 16
    2223                    $C$DW$145       .dwtag  DW_TAG_TI_branch
    2224                            .dwattr $C$DW$145, DW_AT_low_pc(0x00)
    2225                            .dwattr $C$DW$145, DW_AT_TI_return
    2226 00000398 BD0E              POP       {A2, A3, A4, PC}      ; [DPU_3_PIPE]  ; [ORIG 16-BIT INS]
    2227                            ; BRANCH OCCURS                  ; [] 
    2228                            .dwattr $C$DW$136, DW_AT_TI_end_file("../Drivers/rit128x96x4.c")
    2229                            .dwattr $C$DW$136, DW_AT_TI_end_line(0x2f3)
    2230                            .dwattr $C$DW$136, DW_AT_TI_end_column(0x01)
    2231                            .dwendentry
    2232                            .dwendtag $C$DW$136
    2233                    
    2234 0000039a                   .sect   ".text"
    2235                            .clink
    2236                            .thumbfunc RIT128x96x4Disable
    2237 0000039a                   .thumb
    2238                            .global RIT128x96x4Disable
    2239                    
    2240                    $C$DW$146       .dwtag  DW_TAG_subprogram, DW_AT_name("RIT128x96x4Disable")
    2241                            .dwattr $C$DW$146, DW_AT_low_pc(RIT128x96x4Disable)
    2242                            .dwattr $C$DW$146, DW_AT_high_pc(0x00)
    2243                            .dwattr $C$DW$146, DW_AT_TI_symbol_name("RIT128x96x4Disable")
    2244                            .dwattr $C$DW$146, DW_AT_external
    2245                            .dwattr $C$DW$146, DW_AT_TI_begin_file("../Drivers/rit128x96x4.c")
    2246                            .dwattr $C$DW$146, DW_AT_TI_begin_line(0x2ff)
    2247                            .dwattr $C$DW$146, DW_AT_TI_begin_column(0x01)
    2248                            .dwattr $C$DW$146, DW_AT_decl_file("../Drivers/rit128x96x4.c")
    2249                            .dwattr $C$DW$146, DW_AT_decl_line(0x2ff)
    2250                            .dwattr $C$DW$146, DW_AT_decl_column(0x01)
    2251                            .dwattr $C$DW$146, DW_AT_TI_max_frame_size(0x08)
    2252                            .dwpsn  file "../Drivers/rit128x96x4.c",line 768,column 1,is_stmt,address RIT128x96x4Disable,i
    2253                    
    2254                            .dwfde $C$DW$CIE, RIT128x96x4Disable
    2255                    
TI ARM Assembler PC v5.0.4 Mon Apr 28 11:29:12 2014

Tools Copyright (c) 1996-2013 Texas Instruments Incorporated
rit128x96x4.asm                                                      PAGE   42

    2256                    ;*****************************************************************************
    2257                    ;* FUNCTION NAME: RIT128x96x4Disable                                         *
    2258                    ;*                                                                           *
    2259                    ;*   Regs Modified     : A1,A2,A3,A4,V9,SP,LR,SR                             *
    2260                    ;*   Regs Used         : A1,A2,A3,A4,V9,SP,LR,SR                             *
    2261                    ;*   Local Frame Size  : 0 Args + 4 Auto + 4 Save = 8 byte                   *
    2262                    ;*****************************************************************************
    2263 0000039a           RIT128x96x4Disable:
    2264                    ;* --------------------------------------------------------------------------*
    2265                            .dwcfi  cfa_offset, 0
    2266 0000039a B508              PUSH      {A4, LR}              ; [DPU_3_PIPE]  ; [ORIG 16-BIT INS]
    2267                            .dwcfi  cfa_offset, 4
    2268                            .dwcfi  save_reg_to_mem, 14, -4
    2269                            .dwcfi  cfa_offset, 8
    2270                            .dwcfi  save_reg_to_mem, 3, -8
    2271                            .dwcfi  cfa_offset, 8
    2272                    $C$DW$147       .dwtag  DW_TAG_variable, DW_AT_name("ulTemp")
    2273                            .dwattr $C$DW$147, DW_AT_TI_symbol_name("ulTemp")
    2274                            .dwattr $C$DW$147, DW_AT_type(*$C$DW$T$13)
    2275                            .dwattr $C$DW$147, DW_AT_location[DW_OP_breg13 0]
    2276                            .dwpsn  file "../Drivers/rit128x96x4.c",line 774,column 5,is_stmt,isa 1
    2277 0000039c 4953              LDR       A2, $C$CON15          ; [DPU_3_PIPE] |774|  ; [ORIG 16-BIT INS]
    2278 0000039e 4853              LDR       A1, $C$CON15          ; [DPU_3_PIPE] |774|  ; [ORIG 16-BIT INS]
    2279 000003a0 511FF36F          BFC       A2, #20, #12          ; [DPU_3_PIPE] |774|  ; [KEEP 32-BIT INS]
    2280 000003a4 4070F000          AND       A1, A1, #-268435456   ; [DPU_3_PIPE] |774|  ; [KEEP 32-BIT INS]
    2281 000003a8 1041EA40          ORR       A1, A1, A2, LSL #5    ; [DPU_3_PIPE] |774|  ; [KEEP 32-BIT INS]
    2282 000003ac 2100              MOVS      A2, #0                ; [DPU_3_PIPE] |774|  ; [ORIG 16-BIT INS]
    2283 000003ae 7000F040          ORR       A1, A1, #33554432     ; [DPU_3_PIPE] |774|  ; [KEEP 32-BIT INS]
    2284 000003b2 6001              STR       A2, [A1, #0]          ; [DPU_3_PIPE] |774|  ; [ORIG 16-BIT INS]
    2285                            .dwpsn  file "../Drivers/rit128x96x4.c",line 779,column 5,is_stmt,isa 1
    2286                    ;* --------------------------------------------------------------------------*
    2287                    ;*   BEGIN LOOP ||$C$L25||
    2288                    ;*
    2289                    ;*   Loop source line                : 779
    2290                    ;*   Loop closing brace source line  : 781
    2291                    ;*   Known Minimum Trip Count        : 1
    2292                    ;*   Known Maximum Trip Count        : 4294967295
    2293                    ;*   Known Max Trip Count Factor     : 1
    2294                    ;* --------------------------------------------------------------------------*
    2295 000003b4           ||$C$L25||:    
    2296 000003b4           $C$DW$L$RIT128x96x4Disable$2$B:
    2297                            .dwpsn  file "../Drivers/rit128x96x4.c",line 781,column 5,is_stmt,isa 1
    2298 000003b4 484C              LDR       A1, $C$CON14          ; [DPU_3_PIPE] |781|  ; [ORIG 16-BIT INS]
    2299                    $C$DW$148       .dwtag  DW_TAG_TI_branch
    2300                            .dwattr $C$DW$148, DW_AT_low_pc(0x00)
    2301                            .dwattr $C$DW$148, DW_AT_name("SSIBusy")
    2302                            .dwattr $C$DW$148, DW_AT_TI_call
    2303 000003b6 FFFEF7FF!         BL        SSIBusy               ; [DPU_3_PIPE] |781|  ; [KEEP 32-BIT INS]
    2304                            ; CALL OCCURS {SSIBusy }         ; [] |781| 
    2305 000003ba 2800              CMP       A1, #0                ; [DPU_3_PIPE] |781|  ; [ORIG 16-BIT INS]
    2306 000003bc D1FA              BNE       ||$C$L25||            ; [DPU_3_PIPE] |781|  ; [ORIG 16-BIT INS]
    2307                            ; BRANCHCC OCCURS {||$C$L25||}   ; [] |781| 
    2308 000003be           $C$DW$L$RIT128x96x4Disable$2$E:
    2309                    ;* --------------------------------------------------------------------------*
    2310                            .dwpsn  file "../Drivers/rit128x96x4.c",line 786,column 5,is_stmt,isa 1
TI ARM Assembler PC v5.0.4 Mon Apr 28 11:29:12 2014

Tools Copyright (c) 1996-2013 Texas Instruments Incorporated
rit128x96x4.asm                                                      PAGE   43

    2311                    ;* --------------------------------------------------------------------------*
    2312                    ;*   BEGIN LOOP ||$C$L26||
    2313                    ;*
    2314                    ;*   Loop source line                : 786
    2315                    ;*   Loop closing brace source line  : 788
    2316                    ;*   Known Minimum Trip Count        : 1
    2317                    ;*   Known Maximum Trip Count        : 4294967295
    2318                    ;*   Known Max Trip Count Factor     : 1
    2319                    ;* --------------------------------------------------------------------------*
    2320 000003be           ||$C$L26||:    
    2321 000003be           $C$DW$L$RIT128x96x4Disable$4$B:
    2322                            .dwpsn  file "../Drivers/rit128x96x4.c",line 786,column 11,is_stmt,isa 1
    2323 000003be 484A              LDR       A1, $C$CON14          ; [DPU_3_PIPE] |786|  ; [ORIG 16-BIT INS]
    2324 000003c0 4669              MOV       A2, SP                ; [DPU_3_PIPE] |786|  ; [ORIG 16-BIT INS]
    2325                    $C$DW$149       .dwtag  DW_TAG_TI_branch
    2326                            .dwattr $C$DW$149, DW_AT_low_pc(0x00)
    2327                            .dwattr $C$DW$149, DW_AT_name("SSIDataGetNonBlocking")
    2328                            .dwattr $C$DW$149, DW_AT_TI_call
    2329 000003c2 FFFEF7FF!         BL        SSIDataGetNonBlocking ; [DPU_3_PIPE] |786|  ; [KEEP 32-BIT INS]
    2330                            ; CALL OCCURS {SSIDataGetNonBlocking }  ; [] |786| 
    2331 000003c6 2800              CMP       A1, #0                ; [DPU_3_PIPE] |786|  ; [ORIG 16-BIT INS]
    2332 000003c8 D1F9              BNE       ||$C$L26||            ; [DPU_3_PIPE] |786|  ; [ORIG 16-BIT INS]
    2333                            ; BRANCHCC OCCURS {||$C$L26||}   ; [] |786| 
    2334 000003ca           $C$DW$L$RIT128x96x4Disable$4$E:
    2335                    ;* --------------------------------------------------------------------------*
    2336                            .dwpsn  file "../Drivers/rit128x96x4.c",line 793,column 5,is_stmt,isa 1
    2337 000003ca 4847              LDR       A1, $C$CON14          ; [DPU_3_PIPE] |793|  ; [ORIG 16-BIT INS]
    2338                    $C$DW$150       .dwtag  DW_TAG_TI_branch
    2339                            .dwattr $C$DW$150, DW_AT_low_pc(0x00)
    2340                            .dwattr $C$DW$150, DW_AT_name("SSIDisable")
    2341                            .dwattr $C$DW$150, DW_AT_TI_call
    2342 000003cc FFFEF7FF!         BL        SSIDisable            ; [DPU_3_PIPE] |793|  ; [KEEP 32-BIT INS]
    2343                            ; CALL OCCURS {SSIDisable }      ; [] |793| 
    2344                            .dwpsn  file "../Drivers/rit128x96x4.c",line 798,column 5,is_stmt,isa 1
    2345 000003d0 2040F04F          MOV       A1, #1073758208       ; [DPU_3_PIPE] |798|  ; [KEEP 32-BIT INS]
    2346 000003d4 2108              MOVS      A2, #8                ; [DPU_3_PIPE] |798|  ; [ORIG 16-BIT INS]
    2347                    $C$DW$151       .dwtag  DW_TAG_TI_branch
    2348                            .dwattr $C$DW$151, DW_AT_low_pc(0x00)
    2349                            .dwattr $C$DW$151, DW_AT_name("GPIOPinTypeGPIOOutput")
    2350                            .dwattr $C$DW$151, DW_AT_TI_call
    2351 000003d6 FFFEF7FF!         BL        GPIOPinTypeGPIOOutput ; [DPU_3_PIPE] |798|  ; [KEEP 32-BIT INS]
    2352                            ; CALL OCCURS {GPIOPinTypeGPIOOutput }  ; [] |798| 
    2353                            .dwpsn  file "../Drivers/rit128x96x4.c",line 799,column 5,is_stmt,isa 1
    2354 000003da 2040F04F          MOV       A1, #1073758208       ; [DPU_3_PIPE] |799|  ; [KEEP 32-BIT INS]
    2355 000003de 2108              MOVS      A2, #8                ; [DPU_3_PIPE] |799|  ; [ORIG 16-BIT INS]
    2356 000003e0 2204              MOVS      A3, #4                ; [DPU_3_PIPE] |799|  ; [ORIG 16-BIT INS]
    2357 000003e2 230A              MOVS      A4, #10               ; [DPU_3_PIPE] |799|  ; [ORIG 16-BIT INS]
    2358                    $C$DW$152       .dwtag  DW_TAG_TI_branch
    2359                            .dwattr $C$DW$152, DW_AT_low_pc(0x00)
    2360                            .dwattr $C$DW$152, DW_AT_name("GPIOPadConfigSet")
    2361                            .dwattr $C$DW$152, DW_AT_TI_call
    2362 000003e4 FFFEF7FF!         BL        GPIOPadConfigSet      ; [DPU_3_PIPE] |799|  ; [KEEP 32-BIT INS]
    2363                            ; CALL OCCURS {GPIOPadConfigSet }  ; [] |799| 
    2364                            .dwpsn  file "../Drivers/rit128x96x4.c",line 801,column 5,is_stmt,isa 1
    2365 000003e8 2040F04F          MOV       A1, #1073758208       ; [DPU_3_PIPE] |801|  ; [KEEP 32-BIT INS]
TI ARM Assembler PC v5.0.4 Mon Apr 28 11:29:12 2014

Tools Copyright (c) 1996-2013 Texas Instruments Incorporated
rit128x96x4.asm                                                      PAGE   44

    2366 000003ec 2108              MOVS      A2, #8                ; [DPU_3_PIPE] |801|  ; [ORIG 16-BIT INS]
    2367 000003ee 2208              MOVS      A3, #8                ; [DPU_3_PIPE] |801|  ; [ORIG 16-BIT INS]
    2368                    $C$DW$153       .dwtag  DW_TAG_TI_branch
    2369                            .dwattr $C$DW$153, DW_AT_low_pc(0x00)
    2370                            .dwattr $C$DW$153, DW_AT_name("GPIOPinWrite")
    2371                            .dwattr $C$DW$153, DW_AT_TI_call
    2372 000003f0 FFFEF7FF!         BL        GPIOPinWrite          ; [DPU_3_PIPE] |801|  ; [KEEP 32-BIT INS]
    2373                            ; CALL OCCURS {GPIOPinWrite }    ; [] |801| 
    2374                            .dwpsn  file "../Drivers/rit128x96x4.c",line 802,column 1,is_stmt,isa 1
    2375                            .dwcfi  cfa_offset, 8
    2376                    $C$DW$154       .dwtag  DW_TAG_TI_branch
    2377                            .dwattr $C$DW$154, DW_AT_low_pc(0x00)
    2378                            .dwattr $C$DW$154, DW_AT_TI_return
    2379 000003f4 BD08              POP       {A4, PC}              ; [DPU_3_PIPE]  ; [ORIG 16-BIT INS]
    2380                            ; BRANCH OCCURS                  ; [] 
    2381                    
    2382                    $C$DW$155       .dwtag  DW_TAG_TI_loop
    2383                            .dwattr $C$DW$155, DW_AT_name("H:\EECS_388\TI_ARM_Project\FreeRTOS_IntTimer\Debug\rit128x96x4.
    2384                            .dwattr $C$DW$155, DW_AT_TI_begin_file("../Drivers/rit128x96x4.c")
    2385                            .dwattr $C$DW$155, DW_AT_TI_begin_line(0x312)
    2386                            .dwattr $C$DW$155, DW_AT_TI_end_line(0x314)
    2387                    $C$DW$156       .dwtag  DW_TAG_TI_loop_range
    2388                            .dwattr $C$DW$156, DW_AT_low_pc($C$DW$L$RIT128x96x4Disable$4$B)
    2389                            .dwattr $C$DW$156, DW_AT_high_pc($C$DW$L$RIT128x96x4Disable$4$E)
    2390                            .dwendtag $C$DW$155
    2391                    
    2392                    
    2393                    $C$DW$157       .dwtag  DW_TAG_TI_loop
    2394                            .dwattr $C$DW$157, DW_AT_name("H:\EECS_388\TI_ARM_Project\FreeRTOS_IntTimer\Debug\rit128x96x4.
    2395                            .dwattr $C$DW$157, DW_AT_TI_begin_file("../Drivers/rit128x96x4.c")
    2396                            .dwattr $C$DW$157, DW_AT_TI_begin_line(0x30b)
    2397                            .dwattr $C$DW$157, DW_AT_TI_end_line(0x30d)
    2398                    $C$DW$158       .dwtag  DW_TAG_TI_loop_range
    2399                            .dwattr $C$DW$158, DW_AT_low_pc($C$DW$L$RIT128x96x4Disable$2$B)
    2400                            .dwattr $C$DW$158, DW_AT_high_pc($C$DW$L$RIT128x96x4Disable$2$E)
    2401                            .dwendtag $C$DW$157
    2402                    
    2403                            .dwattr $C$DW$146, DW_AT_TI_end_file("../Drivers/rit128x96x4.c")
    2404                            .dwattr $C$DW$146, DW_AT_TI_end_line(0x322)
    2405                            .dwattr $C$DW$146, DW_AT_TI_end_column(0x01)
    2406                            .dwendentry
    2407                            .dwendtag $C$DW$146
    2408                    
    2409                    ;******************************************************************************
    2410                    ;* CONSTANT TABLE                                                             *
    2411                    ;******************************************************************************
    2412 000003f6                   .sect   ".text"
    2413                            .align  4
    2414 000003f6 000146C0! ||$C$CON10||:   .field  g_pucBuffer+1,32
         000003fa 00000000 
    2415                            .align  4
    2416 000003fa 00020000! ||$C$CON11||:   .field  g_pucBuffer+2,32
         000003fe 00000000 
    2417                            .align  4
    2418 000003fe 00000000! ||$C$CON12||:   .field  g_pucRIT128x96x4VerticalInc,32
TI ARM Assembler PC v5.0.4 Mon Apr 28 11:29:12 2014

Tools Copyright (c) 1996-2013 Texas Instruments Incorporated
rit128x96x4.asm                                                      PAGE   45

         00000402 00000000 
    2419                            .align  4
    2420 00000402 00000000! ||$C$CON13||:   .field  g_pucFont,32
         00000406 00000000 
    2421 00000408                   .sect   ".text"
    2422                            .clink
    2423                            .thumbfunc RIT128x96x4Init
    2424 00000408                   .thumb
    2425                            .global RIT128x96x4Init
    2426                    
    2427                    $C$DW$159       .dwtag  DW_TAG_subprogram, DW_AT_name("RIT128x96x4Init")
    2428                            .dwattr $C$DW$159, DW_AT_low_pc(RIT128x96x4Init)
    2429                            .dwattr $C$DW$159, DW_AT_high_pc(0x00)
    2430                            .dwattr $C$DW$159, DW_AT_TI_symbol_name("RIT128x96x4Init")
    2431                            .dwattr $C$DW$159, DW_AT_external
    2432                            .dwattr $C$DW$159, DW_AT_TI_begin_file("../Drivers/rit128x96x4.c")
    2433                            .dwattr $C$DW$159, DW_AT_TI_begin_line(0x331)
    2434                            .dwattr $C$DW$159, DW_AT_TI_begin_column(0x01)
    2435                            .dwattr $C$DW$159, DW_AT_decl_file("../Drivers/rit128x96x4.c")
    2436                            .dwattr $C$DW$159, DW_AT_decl_line(0x331)
    2437                            .dwattr $C$DW$159, DW_AT_decl_column(0x01)
    2438                            .dwattr $C$DW$159, DW_AT_TI_max_frame_size(0x10)
    2439                            .dwpsn  file "../Drivers/rit128x96x4.c",line 818,column 1,is_stmt,address RIT128x96x4Init,isa 
    2440                    
    2441                            .dwfde $C$DW$CIE, RIT128x96x4Init
    2442                    $C$DW$160       .dwtag  DW_TAG_formal_parameter, DW_AT_name("ulFrequency")
    2443                            .dwattr $C$DW$160, DW_AT_TI_symbol_name("ulFrequency")
    2444                            .dwattr $C$DW$160, DW_AT_type(*$C$DW$T$13)
    2445                            .dwattr $C$DW$160, DW_AT_location[DW_OP_reg0]
    2446                    
    2447                    ;*****************************************************************************
    2448                    ;* FUNCTION NAME: RIT128x96x4Init                                            *
    2449                    ;*                                                                           *
    2450                    ;*   Regs Modified     : A1,A2,A3,A4,V9,SP,LR,SR                             *
    2451                    ;*   Regs Used         : A1,A2,A3,A4,V9,SP,LR,SR                             *
    2452                    ;*   Local Frame Size  : 0 Args + 8 Auto + 4 Save = 12 byte                  *
    2453                    ;*****************************************************************************
    2454 00000408           RIT128x96x4Init:
    2455                    ;* --------------------------------------------------------------------------*
    2456                            .dwcfi  cfa_offset, 0
    2457 00000408 B50E              PUSH      {A2, A3, A4, LR}      ; [DPU_3_PIPE]  ; [ORIG 16-BIT INS]
    2458                            .dwcfi  cfa_offset, 4
    2459                            .dwcfi  save_reg_to_mem, 14, -4
    2460                            .dwcfi  cfa_offset, 8
    2461                            .dwcfi  save_reg_to_mem, 3, -8
    2462                            .dwcfi  cfa_offset, 12
    2463                            .dwcfi  save_reg_to_mem, 2, -12
    2464                            .dwcfi  cfa_offset, 16
    2465                            .dwcfi  save_reg_to_mem, 1, -16
    2466                            .dwcfi  cfa_offset, 16
    2467                    $C$DW$161       .dwtag  DW_TAG_variable, DW_AT_name("ulFrequency")
    2468                            .dwattr $C$DW$161, DW_AT_TI_symbol_name("ulFrequency")
    2469                            .dwattr $C$DW$161, DW_AT_type(*$C$DW$T$13)
    2470                            .dwattr $C$DW$161, DW_AT_location[DW_OP_breg13 0]
    2471                    $C$DW$162       .dwtag  DW_TAG_variable, DW_AT_name("ulIdx")
TI ARM Assembler PC v5.0.4 Mon Apr 28 11:29:12 2014

Tools Copyright (c) 1996-2013 Texas Instruments Incorporated
rit128x96x4.asm                                                      PAGE   46

    2472                            .dwattr $C$DW$162, DW_AT_TI_symbol_name("ulIdx")
    2473                            .dwattr $C$DW$162, DW_AT_type(*$C$DW$T$13)
    2474                            .dwattr $C$DW$162, DW_AT_location[DW_OP_breg13 4]
    2475 0000040a 9000              STR       A1, [SP, #0]          ; [DPU_3_PIPE] |818|  ; [ORIG 16-BIT INS]
    2476                            .dwpsn  file "../Drivers/rit128x96x4.c",line 824,column 5,is_stmt,isa 1
    2477 0000040c 4838              LDR       A1, $C$CON16          ; [DPU_3_PIPE] |824|  ; [ORIG 16-BIT INS]
    2478                    $C$DW$163       .dwtag  DW_TAG_TI_branch
    2479                            .dwattr $C$DW$163, DW_AT_low_pc(0x00)
    2480                            .dwattr $C$DW$163, DW_AT_name("SysCtlPeripheralEnable")
    2481                            .dwattr $C$DW$163, DW_AT_TI_call
    2482 0000040e FFFEF7FF!         BL        SysCtlPeripheralEnable ; [DPU_3_PIPE] |824|  ; [KEEP 32-BIT INS]
    2483                            ; CALL OCCURS {SysCtlPeripheralEnable }  ; [] |824| 
    2484                            .dwpsn  file "../Drivers/rit128x96x4.c",line 825,column 5,is_stmt,isa 1
    2485 00000412 4838              LDR       A1, $C$CON17          ; [DPU_3_PIPE] |825|  ; [ORIG 16-BIT INS]
    2486                    $C$DW$164       .dwtag  DW_TAG_TI_branch
    2487                            .dwattr $C$DW$164, DW_AT_low_pc(0x00)
    2488                            .dwattr $C$DW$164, DW_AT_name("SysCtlPeripheralEnable")
    2489                            .dwattr $C$DW$164, DW_AT_TI_call
    2490 00000414 FFFEF7FF!         BL        SysCtlPeripheralEnable ; [DPU_3_PIPE] |825|  ; [KEEP 32-BIT INS]
    2491                            ; CALL OCCURS {SysCtlPeripheralEnable }  ; [] |825| 
    2492                            .dwpsn  file "../Drivers/rit128x96x4.c",line 826,column 5,is_stmt,isa 1
    2493 00000418 4837              LDR       A1, $C$CON18          ; [DPU_3_PIPE] |826|  ; [ORIG 16-BIT INS]
    2494                    $C$DW$165       .dwtag  DW_TAG_TI_branch
    2495                            .dwattr $C$DW$165, DW_AT_low_pc(0x00)
    2496                            .dwattr $C$DW$165, DW_AT_name("SysCtlPeripheralEnable")
    2497                            .dwattr $C$DW$165, DW_AT_TI_call
    2498 0000041a FFFEF7FF!         BL        SysCtlPeripheralEnable ; [DPU_3_PIPE] |826|  ; [KEEP 32-BIT INS]
    2499                            ; CALL OCCURS {SysCtlPeripheralEnable }  ; [] |826| 
    2500                            .dwpsn  file "../Drivers/rit128x96x4.c",line 831,column 5,is_stmt,isa 1
    2501 0000041e 2040F04F          MOV       A1, #1073758208       ; [DPU_3_PIPE] |831|  ; [KEEP 32-BIT INS]
    2502 00000422 212C              MOVS      A2, #44               ; [DPU_3_PIPE] |831|  ; [ORIG 16-BIT INS]
    2503                    $C$DW$166       .dwtag  DW_TAG_TI_branch
    2504                            .dwattr $C$DW$166, DW_AT_low_pc(0x00)
    2505                            .dwattr $C$DW$166, DW_AT_name("GPIOPinTypeSSI")
    2506                            .dwattr $C$DW$166, DW_AT_TI_call
    2507 00000424 FFFEF7FF!         BL        GPIOPinTypeSSI        ; [DPU_3_PIPE] |831|  ; [KEEP 32-BIT INS]
    2508                            ; CALL OCCURS {GPIOPinTypeSSI }  ; [] |831| 
    2509                            .dwpsn  file "../Drivers/rit128x96x4.c",line 832,column 5,is_stmt,isa 1
    2510 00000428 2040F04F          MOV       A1, #1073758208       ; [DPU_3_PIPE] |832|  ; [KEEP 32-BIT INS]
    2511 0000042c 212C              MOVS      A2, #44               ; [DPU_3_PIPE] |832|  ; [ORIG 16-BIT INS]
    2512 0000042e 2204              MOVS      A3, #4                ; [DPU_3_PIPE] |832|  ; [ORIG 16-BIT INS]
    2513 00000430 230A              MOVS      A4, #10               ; [DPU_3_PIPE] |832|  ; [ORIG 16-BIT INS]
    2514                    $C$DW$167       .dwtag  DW_TAG_TI_branch
    2515                            .dwattr $C$DW$167, DW_AT_low_pc(0x00)
    2516                            .dwattr $C$DW$167, DW_AT_name("GPIOPadConfigSet")
    2517                            .dwattr $C$DW$167, DW_AT_TI_call
    2518 00000432 FFFEF7FF!         BL        GPIOPadConfigSet      ; [DPU_3_PIPE] |832|  ; [KEEP 32-BIT INS]
    2519                            ; CALL OCCURS {GPIOPadConfigSet }  ; [] |832| 
    2520                            .dwpsn  file "../Drivers/rit128x96x4.c",line 839,column 5,is_stmt,isa 1
    2521 00000436 4833              LDR       A1, $C$CON21          ; [DPU_3_PIPE] |839|  ; [ORIG 16-BIT INS]
    2522 00000438 210C              MOVS      A2, #12               ; [DPU_3_PIPE] |839|  ; [ORIG 16-BIT INS]
    2523                    $C$DW$168       .dwtag  DW_TAG_TI_branch
    2524                            .dwattr $C$DW$168, DW_AT_low_pc(0x00)
    2525                            .dwattr $C$DW$168, DW_AT_name("GPIOPinTypeGPIOOutput")
    2526                            .dwattr $C$DW$168, DW_AT_TI_call
TI ARM Assembler PC v5.0.4 Mon Apr 28 11:29:12 2014

Tools Copyright (c) 1996-2013 Texas Instruments Incorporated
rit128x96x4.asm                                                      PAGE   47

    2527 0000043a FFFEF7FF!         BL        GPIOPinTypeGPIOOutput ; [DPU_3_PIPE] |839|  ; [KEEP 32-BIT INS]
    2528                            ; CALL OCCURS {GPIOPinTypeGPIOOutput }  ; [] |839| 
    2529                            .dwpsn  file "../Drivers/rit128x96x4.c",line 840,column 5,is_stmt,isa 1
    2530 0000043e 4831              LDR       A1, $C$CON21          ; [DPU_3_PIPE] |840|  ; [ORIG 16-BIT INS]
    2531 00000440 210C              MOVS      A2, #12               ; [DPU_3_PIPE] |840|  ; [ORIG 16-BIT INS]
    2532 00000442 2204              MOVS      A3, #4                ; [DPU_3_PIPE] |840|  ; [ORIG 16-BIT INS]
    2533 00000444 2308              MOVS      A4, #8                ; [DPU_3_PIPE] |840|  ; [ORIG 16-BIT INS]
    2534                    $C$DW$169       .dwtag  DW_TAG_TI_branch
    2535                            .dwattr $C$DW$169, DW_AT_low_pc(0x00)
    2536                            .dwattr $C$DW$169, DW_AT_name("GPIOPadConfigSet")
    2537                            .dwattr $C$DW$169, DW_AT_TI_call
    2538 00000446 FFFEF7FF!         BL        GPIOPadConfigSet      ; [DPU_3_PIPE] |840|  ; [KEEP 32-BIT INS]
    2539                            ; CALL OCCURS {GPIOPadConfigSet }  ; [] |840| 
    2540                            .dwpsn  file "../Drivers/rit128x96x4.c",line 842,column 5,is_stmt,isa 1
    2541 0000044a 482E              LDR       A1, $C$CON21          ; [DPU_3_PIPE] |842|  ; [ORIG 16-BIT INS]
    2542 0000044c 210C              MOVS      A2, #12               ; [DPU_3_PIPE] |842|  ; [ORIG 16-BIT INS]
    2543 0000044e 220C              MOVS      A3, #12               ; [DPU_3_PIPE] |842|  ; [ORIG 16-BIT INS]
    2544                    $C$DW$170       .dwtag  DW_TAG_TI_branch
    2545                            .dwattr $C$DW$170, DW_AT_low_pc(0x00)
    2546                            .dwattr $C$DW$170, DW_AT_name("GPIOPinWrite")
    2547                            .dwattr $C$DW$170, DW_AT_TI_call
    2548 00000450 FFFEF7FF!         BL        GPIOPinWrite          ; [DPU_3_PIPE] |842|  ; [KEEP 32-BIT INS]
    2549                            ; CALL OCCURS {GPIOPinWrite }    ; [] |842| 
    2550                            .dwpsn  file "../Drivers/rit128x96x4.c",line 844,column 5,is_stmt,isa 1
    2551 00000454 4925              LDR       A2, $C$CON15          ; [DPU_3_PIPE] |844|  ; [ORIG 16-BIT INS]
    2552 00000456 4825              LDR       A1, $C$CON15          ; [DPU_3_PIPE] |844|  ; [ORIG 16-BIT INS]
    2553 00000458 511FF36F          BFC       A2, #20, #12          ; [DPU_3_PIPE] |844|  ; [KEEP 32-BIT INS]
    2554 0000045c 4070F000          AND       A1, A1, #-268435456   ; [DPU_3_PIPE] |844|  ; [KEEP 32-BIT INS]
    2555 00000460 1041EA40          ORR       A1, A1, A2, LSL #5    ; [DPU_3_PIPE] |844|  ; [KEEP 32-BIT INS]
    2556 00000464 4928              LDR       A2, $C$CON22          ; [DPU_3_PIPE] |844|  ; [ORIG 16-BIT INS]
    2557 00000466 4301              ORRS      A2, A2, A1            ; [DPU_3_PIPE] |844|  ; [ORIG 16-BIT INS]
    2558 00000468 2001              MOVS      A1, #1                ; [DPU_3_PIPE] |844|  ; [ORIG 16-BIT INS]
    2559 0000046a 6008              STR       A1, [A2, #0]          ; [DPU_3_PIPE] |844|  ; [ORIG 16-BIT INS]
    2560                            .dwpsn  file "../Drivers/rit128x96x4.c",line 849,column 5,is_stmt,isa 1
    2561 0000046c 9800              LDR       A1, [SP, #0]          ; [DPU_3_PIPE] |849|  ; [ORIG 16-BIT INS]
    2562                    $C$DW$171       .dwtag  DW_TAG_TI_branch
    2563                            .dwattr $C$DW$171, DW_AT_low_pc(0x00)
    2564                            .dwattr $C$DW$171, DW_AT_name("RIT128x96x4Enable")
    2565                            .dwattr $C$DW$171, DW_AT_TI_call
    2566 0000046e FF67F7FF          BL        RIT128x96x4Enable     ; [DPU_3_PIPE] |849|  ; [KEEP 32-BIT INS]
    2567                            ; CALL OCCURS {RIT128x96x4Enable }  ; [] |849| 
    2568                            .dwpsn  file "../Drivers/rit128x96x4.c",line 854,column 5,is_stmt,isa 1
    2569                    $C$DW$172       .dwtag  DW_TAG_TI_branch
    2570                            .dwattr $C$DW$172, DW_AT_low_pc(0x00)
    2571                            .dwattr $C$DW$172, DW_AT_name("RIT128x96x4Clear")
    2572                            .dwattr $C$DW$172, DW_AT_TI_call
    2573 00000472 FE49F7FF          BL        RIT128x96x4Clear      ; [DPU_3_PIPE] |854|  ; [KEEP 32-BIT INS]
    2574                            ; CALL OCCURS {RIT128x96x4Clear }  ; [] |854| 
    2575                            .dwpsn  file "../Drivers/rit128x96x4.c",line 860,column 9,is_stmt,isa 1
    2576 00000476 2000              MOVS      A1, #0                ; [DPU_3_PIPE] |860|  ; [ORIG 16-BIT INS]
    2577 00000478 9001              STR       A1, [SP, #4]          ; [DPU_3_PIPE] |860|  ; [ORIG 16-BIT INS]
    2578                            .dwpsn  file "../Drivers/rit128x96x4.c",line 860,column 20,is_stmt,isa 1
    2579 0000047a 9801              LDR       A1, [SP, #4]          ; [DPU_3_PIPE] |860|  ; [ORIG 16-BIT INS]
    2580 0000047c 284F              CMP       A1, #79               ; [DPU_3_PIPE] |860|  ; [ORIG 16-BIT INS]
    2581 0000047e D212              BCS       ||$C$L28||            ; [DPU_3_PIPE] |860|  ; [ORIG 16-BIT INS]
TI ARM Assembler PC v5.0.4 Mon Apr 28 11:29:12 2014

Tools Copyright (c) 1996-2013 Texas Instruments Incorporated
rit128x96x4.asm                                                      PAGE   48

    2582                            ; BRANCHCC OCCURS {||$C$L28||}   ; [] |860| 
    2583                    ;* --------------------------------------------------------------------------*
    2584                    ;*   BEGIN LOOP ||$C$L27||
    2585                    ;*
    2586                    ;*   Loop source line                : 860
    2587                    ;*   Loop closing brace source line  : 868
    2588                    ;*   Known Minimum Trip Count        : 1
    2589                    ;*   Known Maximum Trip Count        : 4294967295
    2590                    ;*   Known Max Trip Count Factor     : 1
    2591                    ;* --------------------------------------------------------------------------*
    2592 00000480           ||$C$L27||:    
    2593 00000480           $C$DW$L$RIT128x96x4Init$2$B:
    2594                            .dwpsn  file "../Drivers/rit128x96x4.c",line 866,column 9,is_stmt,isa 1
    2595 00000480 9901              LDR       A2, [SP, #4]          ; [DPU_3_PIPE] |866|  ; [ORIG 16-BIT INS]
    2596 00000482 481E              LDR       A1, $C$CON19          ; [DPU_3_PIPE] |866|  ; [ORIG 16-BIT INS]
    2597 00000484 4A1E              LDR       A3, $C$CON20          ; [DPU_3_PIPE] |866|  ; [ORIG 16-BIT INS]
    2598 00000486 1840              ADDS      A1, A1, A2            ; [DPU_3_PIPE] |866|  ; [ORIG 16-BIT INS]
    2599 00000488 9901              LDR       A2, [SP, #4]          ; [DPU_3_PIPE] |866|  ; [ORIG 16-BIT INS]
    2600 0000048a 5C51              LDRB      A2, [A3, +A2]         ; [DPU_3_PIPE] |866|  ; [ORIG 16-BIT INS]
    2601 0000048c 1E49              SUBS      A2, A2, #1            ; [DPU_3_PIPE] |866|  ; [ORIG 16-BIT INS]
    2602                    $C$DW$173       .dwtag  DW_TAG_TI_branch
    2603                            .dwattr $C$DW$173, DW_AT_low_pc(0x00)
    2604                            .dwattr $C$DW$173, DW_AT_name("RITWriteCommand")
    2605                            .dwattr $C$DW$173, DW_AT_TI_call
    2606 0000048e FDB7F7FF          BL        RITWriteCommand       ; [DPU_3_PIPE] |866|  ; [KEEP 32-BIT INS]
    2607                            ; CALL OCCURS {RITWriteCommand }  ; [] |866| 
    2608                            .dwpsn  file "../Drivers/rit128x96x4.c",line 861,column 9,is_stmt,isa 1
    2609 00000492 9801              LDR       A1, [SP, #4]          ; [DPU_3_PIPE] |861|  ; [ORIG 16-BIT INS]
    2610 00000494 491A              LDR       A2, $C$CON20          ; [DPU_3_PIPE] |861|  ; [ORIG 16-BIT INS]
    2611 00000496 5C08              LDRB      A1, [A2, +A1]         ; [DPU_3_PIPE] |861|  ; [ORIG 16-BIT INS]
    2612 00000498 9901              LDR       A2, [SP, #4]          ; [DPU_3_PIPE] |861|  ; [ORIG 16-BIT INS]
    2613 0000049a 1C40              ADDS      A1, A1, #1            ; [DPU_3_PIPE] |861|  ; [ORIG 16-BIT INS]
    2614 0000049c 1809              ADDS      A2, A2, A1            ; [DPU_3_PIPE] |861|  ; [ORIG 16-BIT INS]
    2615 0000049e 9101              STR       A2, [SP, #4]          ; [DPU_3_PIPE] |861|  ; [ORIG 16-BIT INS]
    2616                            .dwpsn  file "../Drivers/rit128x96x4.c",line 860,column 20,is_stmt,isa 1
    2617 000004a0 9801              LDR       A1, [SP, #4]          ; [DPU_3_PIPE] |860|  ; [ORIG 16-BIT INS]
    2618 000004a2 284F              CMP       A1, #79               ; [DPU_3_PIPE] |860|  ; [ORIG 16-BIT INS]
    2619 000004a4 D3EC              BCC       ||$C$L27||            ; [DPU_3_PIPE] |860|  ; [ORIG 16-BIT INS]
    2620                            ; BRANCHCC OCCURS {||$C$L27||}   ; [] |860| 
    2621 000004a6           $C$DW$L$RIT128x96x4Init$2$E:
    2622                    ;* --------------------------------------------------------------------------*
    2623                            .dwpsn  file "../Drivers/rit128x96x4.c",line 869,column 1,is_stmt,isa 1
    2624                    ;* --------------------------------------------------------------------------*
    2625 000004a6           ||$C$L28||:    
    2626                            .dwcfi  cfa_offset, 16
    2627                    $C$DW$174       .dwtag  DW_TAG_TI_branch
    2628                            .dwattr $C$DW$174, DW_AT_low_pc(0x00)
    2629                            .dwattr $C$DW$174, DW_AT_TI_return
    2630 000004a6 BD0E              POP       {A2, A3, A4, PC}      ; [DPU_3_PIPE]  ; [ORIG 16-BIT INS]
    2631                            ; BRANCH OCCURS                  ; [] 
    2632                    
    2633                    $C$DW$175       .dwtag  DW_TAG_TI_loop
    2634                            .dwattr $C$DW$175, DW_AT_name("H:\EECS_388\TI_ARM_Project\FreeRTOS_IntTimer\Debug\rit128x96x4.
    2635                            .dwattr $C$DW$175, DW_AT_TI_begin_file("../Drivers/rit128x96x4.c")
    2636                            .dwattr $C$DW$175, DW_AT_TI_begin_line(0x35c)
TI ARM Assembler PC v5.0.4 Mon Apr 28 11:29:12 2014

Tools Copyright (c) 1996-2013 Texas Instruments Incorporated
rit128x96x4.asm                                                      PAGE   49

    2637                            .dwattr $C$DW$175, DW_AT_TI_end_line(0x364)
    2638                    $C$DW$176       .dwtag  DW_TAG_TI_loop_range
    2639                            .dwattr $C$DW$176, DW_AT_low_pc($C$DW$L$RIT128x96x4Init$2$B)
    2640                            .dwattr $C$DW$176, DW_AT_high_pc($C$DW$L$RIT128x96x4Init$2$E)
    2641                            .dwendtag $C$DW$175
    2642                    
    2643                            .dwattr $C$DW$159, DW_AT_TI_end_file("../Drivers/rit128x96x4.c")
    2644                            .dwattr $C$DW$159, DW_AT_TI_end_line(0x365)
    2645                            .dwattr $C$DW$159, DW_AT_TI_end_column(0x01)
    2646                            .dwendentry
    2647                            .dwendtag $C$DW$159
    2648                    
    2649 000004a8                   .sect   ".text"
    2650                            .clink
    2651                            .thumbfunc RIT128x96x4DisplayOn
    2652 000004a8                   .thumb
    2653                            .global RIT128x96x4DisplayOn
    2654                    
    2655                    $C$DW$177       .dwtag  DW_TAG_subprogram, DW_AT_name("RIT128x96x4DisplayOn")
    2656                            .dwattr $C$DW$177, DW_AT_low_pc(RIT128x96x4DisplayOn)
    2657                            .dwattr $C$DW$177, DW_AT_high_pc(0x00)
    2658                            .dwattr $C$DW$177, DW_AT_TI_symbol_name("RIT128x96x4DisplayOn")
    2659                            .dwattr $C$DW$177, DW_AT_external
    2660                            .dwattr $C$DW$177, DW_AT_TI_begin_file("../Drivers/rit128x96x4.c")
    2661                            .dwattr $C$DW$177, DW_AT_TI_begin_line(0x372)
    2662                            .dwattr $C$DW$177, DW_AT_TI_begin_column(0x01)
    2663                            .dwattr $C$DW$177, DW_AT_decl_file("../Drivers/rit128x96x4.c")
    2664                            .dwattr $C$DW$177, DW_AT_decl_line(0x372)
    2665                            .dwattr $C$DW$177, DW_AT_decl_column(0x01)
    2666                            .dwattr $C$DW$177, DW_AT_TI_max_frame_size(0x08)
    2667                            .dwpsn  file "../Drivers/rit128x96x4.c",line 883,column 1,is_stmt,address RIT128x96x4DisplayOn
    2668                    
    2669                            .dwfde $C$DW$CIE, RIT128x96x4DisplayOn
    2670                    
    2671                    ;*****************************************************************************
    2672                    ;* FUNCTION NAME: RIT128x96x4DisplayOn                                       *
    2673                    ;*                                                                           *
    2674                    ;*   Regs Modified     : A1,A2,A3,A4,V9,SP,LR,SR                             *
    2675                    ;*   Regs Used         : A1,A2,A3,A4,V9,SP,LR,SR                             *
    2676                    ;*   Local Frame Size  : 0 Args + 4 Auto + 4 Save = 8 byte                   *
    2677                    ;*****************************************************************************
    2678 000004a8           RIT128x96x4DisplayOn:
    2679                    ;* --------------------------------------------------------------------------*
    2680                            .dwcfi  cfa_offset, 0
    2681 000004a8 B508              PUSH      {A4, LR}              ; [DPU_3_PIPE]  ; [ORIG 16-BIT INS]
    2682                            .dwcfi  cfa_offset, 4
    2683                            .dwcfi  save_reg_to_mem, 14, -4
    2684                            .dwcfi  cfa_offset, 8
    2685                            .dwcfi  save_reg_to_mem, 3, -8
    2686                            .dwcfi  cfa_offset, 8
    2687                    $C$DW$178       .dwtag  DW_TAG_variable, DW_AT_name("ulIdx")
    2688                            .dwattr $C$DW$178, DW_AT_TI_symbol_name("ulIdx")
    2689                            .dwattr $C$DW$178, DW_AT_type(*$C$DW$T$13)
    2690                            .dwattr $C$DW$178, DW_AT_location[DW_OP_breg13 0]
    2691                            .dwpsn  file "../Drivers/rit128x96x4.c",line 890,column 9,is_stmt,isa 1
TI ARM Assembler PC v5.0.4 Mon Apr 28 11:29:12 2014

Tools Copyright (c) 1996-2013 Texas Instruments Incorporated
rit128x96x4.asm                                                      PAGE   50

    2692 000004aa 2000              MOVS      A1, #0                ; [DPU_3_PIPE] |890|  ; [ORIG 16-BIT INS]
    2693 000004ac 9000              STR       A1, [SP, #0]          ; [DPU_3_PIPE] |890|  ; [ORIG 16-BIT INS]
    2694                            .dwpsn  file "../Drivers/rit128x96x4.c",line 890,column 20,is_stmt,isa 1
    2695 000004ae 9800              LDR       A1, [SP, #0]          ; [DPU_3_PIPE] |890|  ; [ORIG 16-BIT INS]
    2696 000004b0 284F              CMP       A1, #79               ; [DPU_3_PIPE] |890|  ; [ORIG 16-BIT INS]
    2697 000004b2 D212              BCS       ||$C$L30||            ; [DPU_3_PIPE] |890|  ; [ORIG 16-BIT INS]
    2698                            ; BRANCHCC OCCURS {||$C$L30||}   ; [] |890| 
    2699                    ;* --------------------------------------------------------------------------*
    2700                    ;*   BEGIN LOOP ||$C$L29||
    2701                    ;*
    2702                    ;*   Loop source line                : 890
    2703                    ;*   Loop closing brace source line  : 898
    2704                    ;*   Known Minimum Trip Count        : 1
    2705                    ;*   Known Maximum Trip Count        : 4294967295
    2706                    ;*   Known Max Trip Count Factor     : 1
    2707                    ;* --------------------------------------------------------------------------*
    2708 000004b4           ||$C$L29||:    
    2709 000004b4           $C$DW$L$RIT128x96x4DisplayOn$2$B:
    2710                            .dwpsn  file "../Drivers/rit128x96x4.c",line 896,column 9,is_stmt,isa 1
    2711 000004b4 9900              LDR       A2, [SP, #0]          ; [DPU_3_PIPE] |896|  ; [ORIG 16-BIT INS]
    2712 000004b6 4811              LDR       A1, $C$CON19          ; [DPU_3_PIPE] |896|  ; [ORIG 16-BIT INS]
    2713 000004b8 4A11              LDR       A3, $C$CON20          ; [DPU_3_PIPE] |896|  ; [ORIG 16-BIT INS]
